
/home/xieyifan/gap/gap_sdk/examples/pmsis/helloworld/BUILD/GAP8_V2/GCC_RISCV_PULPOS/test:     file format elf32-littleriscv

Sections:
Idx Name          Size      VMA       LMA       File off  Algn  Flags
  0 .data_tiny_fc 00000390  00000004  1b000004  00001004  2**2  CONTENTS, ALLOC, LOAD, DATA
  1 .stack        00001038  1b000398  1b000398  00001398  2**3  CONTENTS, ALLOC, LOAD, DATA
  2 .vectors      000000a0  1c000000  1c000000  00003000  2**0  CONTENTS, ALLOC, LOAD, READONLY, CODE
  3 .text         00004a64  1c0000a0  1c0000a0  000030a0  2**1  CONTENTS, ALLOC, LOAD, READONLY, CODE
  4 .init_array   0000003c  1c004b04  1c004b04  00007b04  2**2  CONTENTS, ALLOC, LOAD, DATA
  5 .fini_array   0000000c  1c004b40  1c004b40  00007b40  2**2  CONTENTS, ALLOC, LOAD, DATA
  6 .init         00000000  1c004b4c  1c004b4c  00009020  2**0  CONTENTS, ALLOC, LOAD, CODE
  7 .fini         00000000  1c004b4c  1c004b4c  00009020  2**0  CONTENTS, ALLOC, LOAD, CODE
  8 .preinit_array 00000000  1c004b4c  1c004b4c  00009020  2**0  CONTENTS, ALLOC, LOAD, DATA
  9 .boot         00000000  1c004b4c  1c004b4c  00009020  2**0  CONTENTS
 10 .got          00000000  1c004b4c  1c004b4c  00009020  2**0  CONTENTS, ALLOC, LOAD, DATA
 11 .shbss        00000000  1c004b4c  1c004b4c  00009020  2**0  CONTENTS
 12 .gnu.offload_funcs 00000000  1c004b4c  1c004b4c  00009020  2**0  CONTENTS
 13 .gnu.offload_vars 00000000  1c004b4c  1c004b4c  00009020  2**0  CONTENTS
 14 .rodata       00000418  1c004b4c  1c004b4c  00007b4c  2**2  CONTENTS, ALLOC, LOAD, READONLY, DATA
 15 .data         000001ec  1c004f64  1c004f64  00007f64  2**2  CONTENTS, ALLOC, LOAD, DATA
 16 .bss          00009e3c  1c005150  1c005150  00008150  2**2  ALLOC
 17 .data_tiny_l1 00000018  00000004  1c00ef8c  00009004  2**2  CONTENTS, ALLOC, LOAD, DATA
 18 .l1cluster_g  00000004  1000001c  1c00efa4  0000901c  2**2  CONTENTS, ALLOC, LOAD, DATA
 19 .bss_l1       00000000  10000020  10000020  00009020  2**0  CONTENTS
 20 .comment      0000001a  00000000  00000000  00009020  2**0  CONTENTS, READONLY
 21 .Pulp_Chip.Info 0000004e  00000000  00000000  0000903a  2**0  CONTENTS, READONLY
 22 .debug_frame  00003bc8  00000000  00000000  00009088  2**2  CONTENTS, READONLY, DEBUGGING
 23 .debug_info   0004d1f9  00000000  00000000  0000cc50  2**0  CONTENTS, READONLY, DEBUGGING
 24 .debug_abbrev 00008519  00000000  00000000  00059e49  2**0  CONTENTS, READONLY, DEBUGGING
 25 .debug_loc    00014223  00000000  00000000  00062362  2**0  CONTENTS, READONLY, DEBUGGING
 26 .debug_aranges 00000f08  00000000  00000000  00076588  2**3  CONTENTS, READONLY, DEBUGGING
 27 .debug_ranges 00002f38  00000000  00000000  00077490  2**3  CONTENTS, READONLY, DEBUGGING
 28 .debug_line   00017136  00000000  00000000  0007a3c8  2**0  CONTENTS, READONLY, DEBUGGING
 29 .debug_str    000089a4  00000000  00000000  000914fe  2**0  CONTENTS, READONLY, DEBUGGING
SYMBOL TABLE:
00000004 l    d  .data_tiny_fc	00000000 .data_tiny_fc
1b000398 l    d  .stack	00000000 .stack
1c000000 l    d  .vectors	00000000 .vectors
1c0000a0 l    d  .text	00000000 .text
1c004b04 l    d  .init_array	00000000 .init_array
1c004b40 l    d  .fini_array	00000000 .fini_array
1c004b4c l    d  .init	00000000 .init
1c004b4c l    d  .fini	00000000 .fini
1c004b4c l    d  .preinit_array	00000000 .preinit_array
1c004b4c l    d  .boot	00000000 .boot
1c004b4c l    d  .got	00000000 .got
1c004b4c l    d  .shbss	00000000 .shbss
1c004b4c l    d  .gnu.offload_funcs	00000000 .gnu.offload_funcs
1c004b4c l    d  .gnu.offload_vars	00000000 .gnu.offload_vars
1c004b4c l    d  .rodata	00000000 .rodata
1c004f64 l    d  .data	00000000 .data
1c005150 l    d  .bss	00000000 .bss
00000004 l    d  .data_tiny_l1	00000000 .data_tiny_l1
1000001c l    d  .l1cluster_g	00000000 .l1cluster_g
10000020 l    d  .bss_l1	00000000 .bss_l1
00000000 l    d  .comment	00000000 .comment
00000000 l    d  .Pulp_Chip.Info	00000000 .Pulp_Chip.Info
00000000 l    d  .debug_frame	00000000 .debug_frame
00000000 l    d  .debug_info	00000000 .debug_info
00000000 l    d  .debug_abbrev	00000000 .debug_abbrev
00000000 l    d  .debug_loc	00000000 .debug_loc
00000000 l    d  .debug_aranges	00000000 .debug_aranges
00000000 l    d  .debug_ranges	00000000 .debug_ranges
00000000 l    d  .debug_line	00000000 .debug_line
00000000 l    d  .debug_str	00000000 .debug_str
00000000 l    df *ABS*	00000000 bridge.c
1c001cd0 l     F .text	0000001c __rt_event_enqueue
1c001cec l     F .text	00000020 __rt_bridge_check_bridge_req.part.5
1c001d0c l     F .text	00000046 __rt_bridge_wait
00000004 l     O .data_tiny_fc	00000004 __rt_bridge_flash_handle
00000008 l     O .data_tiny_fc	00000004 __rt_bridge_flash_type
0000000c l     O .data_tiny_fc	00000004 __rt_bridge_flash_itf
00000010 l     O .data_tiny_fc	00000004 __rt_bridge_flash_cs
00000014 l     O .data_tiny_fc	00000004 __rt_bridge_eeprom_handle
00000000 l    df *ABS*	00000000 events.c
00000000 l    df *ABS*	00000000 periph-v2.c
00000000 l    df *ABS*	00000000 hyperram-v1.c
1c0031c8 l     F .text	0000002e __rt_hyper_init
1c0052b0 l     O .bss	00000004 __pi_hyper_cluster_reqs_first
1c0052b4 l     O .bss	00000004 __rt_hyper_open_count
00000000 l    df *ABS*	00000000 pwm.c
00000000 l    df *ABS*	00000000 rtc.c
00000000 l    df *ABS*	00000000 conf.c
00000000 l    df *ABS*	00000000 debug.c
00000000 l    df *ABS*	00000000 utils.c
1c001af0 l     F .text	0000007c __rt_fc_cluster_lock_req
1b000ba0 l     O .stack	00000018 cbsys_first
00000000 l    df *ABS*	00000000 himax.c
00000000 l    df *ABS*	00000000 io.c
1c003384 l     F .text	0000000e __rt_io_end_of_flush
1c003392 l     F .text	00000050 __rt_io_uart_wait_req
1c0033e2 l     F .text	00000040 __rt_do_putc_host
1c003422 l     F .text	0000005a __rt_io_start
1c00347c l     F .text	00000020 rt_event_execute.isra.4.constprop.12
1c00349c l     F .text	00000070 __rt_io_lock
1c00350c l     F .text	00000032 __rt_putc_host_cluster_req
1c00353e l     F .text	00000070 __rt_io_unlock
1c0035ae l     F .text	000000ce __rt_io_uart_flush.constprop.11
1c00367c l     F .text	0000008c __rt_io_uart_wait_pending
1c003708 l     F .text	00000026 __rt_io_stop
1c0037ee l     F .text	000000a8 tfp_putc.isra.9
1c005214 l     O .bss	00000080 __rt_io_event
1b000bbc l     O .stack	00000010 __rt_io_fc_lock
1c0050d0 l     O .data	00000080 __rt_putc_host_buffer
1c0052c4 l     O .bss	00000004 __rt_io_event_current
1c0052c8 l     O .bss	00000004 __rt_io_pending_flush
1c0052cc l     O .bss	00000004 __rt_putc_host_buffer_index
1c0052d0 l     O .bss	00000004 _rt_io_uart
00000000 l    df *ABS*	00000000 crt0.o
1c000094 l       .vectors	00000000 __rt_no_irq_handler
00000000 l    df *ABS*	00000000 sched.o
1c000132 l       .text	00000000 __rt_handle_special_event
1c00012c l       .text	00000000 __rt_no_first
1c00012e l       .text	00000000 __rt_common
1c000130 l       .text	00000000 enqueue_end
1c000192 l       .text	00000000 __rt_remote_enqueue_event_loop_cluster
1c0001ce l       .text	00000000 __rt_remote_enqueue_event_loop_cluster_continue
1c0001b8 l       .text	00000000 __rt_cluster_pool_update_end
1c0001a0 l       .text	00000000 __rt_cluster_pool_update_loop
1c0001a8 l       .text	00000000 __rt_cluster_pool_update_loop_end
1c0001b0 l       .text	00000000 __rt_cluster_pool_update_no_current
1c0001ec l       .text	00000000 __rt_remote_enqueue_event_loop_next_cluster
00000000 l    df *ABS*	00000000 vectors.o
1c000266 l       .text	00000000 __rt_call_c_function
00000000 l    df *ABS*	00000000 udma-v2.o
1c000356 l       .text	00000000 __rt_udma_no_copy
1c00031e l       .text	00000000 repeat_transfer
1c00036e l       .text	00000000 handle_special_end
1c0002ca l       .text	00000000 resume_after_special_end
1c000308 l       .text	00000000 checkTask
1c0002de l       .text	00000000 __rt_udma_call_enqueue_callback_resume
1c000304 l       .text	00000000 transfer_resume
1c0002fc l       .text	00000000 hyper
1c0002fc l       .text	00000000 fc_tcdm
1c0002fc l       .text	00000000 dual
1c00031e l       .text	00000000 dmaCmd
1c000346 l       .text	00000000 not_last
1c0003b6 l       .text	00000000 i2c_step1
1c0003d2 l       .text	00000000 i2c_step2
1c000378 l       .text	00000000 spim_step3
1c000394 l       .text	00000000 spim_step2
00000000 l    df *ABS*	00000000 soc_event_eu.o
1c000426 l       .text	00000000 __rt_fc_socevents_not_hyper_rx
1c00042c l       .text	00000000 __rt_fc_socevents_not_hyper_tx
1c000446 l       .text	00000000 __rt_soc_evt_no_udma_channel
1c0004b4 l       .text	00000000 rtc_event_handler
1c000472 l       .text	00000000 __rt_soc_evt_pwm
1c000486 l       .text	00000000 __rt_soc_evt_store
1c00049a l       .text	00000000 socevents_set
00000000 l    df *ABS*	00000000 gpio.o
1c000502 l       .text	00000000 __rt_gpio_handler_end
00000000 l    df *ABS*	00000000 libgcc2.c
00000000 l    df *ABS*	00000000 libgcc2.c
00000000 l    df *ABS*	00000000 helloworld.c
1c000b70 l     F .text	00000052 pi_cluster_task
1c000bc2 l     F .text	0000001e core_id
1c000be0 l     F .text	00000016 hal_core_id
1c000bf6 l     F .text	00000022 hal_irq_disable
1c000c18 l     F .text	0000001a hal_irq_restore
1c000c32 l     F .text	0000001e eu_evt_maskSet
1c000c50 l     F .text	0000001e eu_evt_maskClr
1c000c6e l     F .text	0000001e eu_evt_waitAndClr
1c000c8c l     F .text	0000002c eu_evt_maskWaitAndClr
1c000cb8 l     F .text	00000020 eu_bar_addr
1c000cd8 l     F .text	00000022 eu_bar_trig_wait_clr
1c000cfa l     F .text	00000032 eu_bar_setup_mask
1c000d2c l     F .text	00000028 eu_bar_setup
1c000d54 l     F .text	00000024 eu_mutex_unlock_from_id
1c000d78 l     F .text	0000001e eu_dispatch_push
1c000d96 l     F .text	0000001e eu_dispatch_team_config
1c000db4 l     F .text	00000016 plp_dma_counter_alloc
1c000dca l     F .text	00000024 plp_dma_counter_free
1c000dee l     F .text	000000b2 plp_dma_getCmd
1c000ea0 l     F .text	0000003e plp_dma_cmd_push
1c000ede l     F .text	00000016 rt_irq_disable
1c000ef4 l     F .text	0000001c rt_irq_restore
1c000f10 l     F .text	00000016 pi_core_id
1c001350 l     F .text	00000018 rt_core_id
1c000f26 l     F .text	00000016 pi_cl_cluster_nb_cores
1c001368 l     F .text	00000010 rt_nb_pe
1c000f3c l     F .text	00000024 __rt_team_barrier_config
1c000f60 l     F .text	00000032 __rt_team_config
1c000f92 l     F .text	0000002c pi_cl_team_fork
1c000fe6 l     F .text	00000046 rt_team_fork
1c000fbe l     F .text	00000014 pi_cl_team_critical_enter
1c001048 l     F .text	00000020 rt_team_critical_enter
1c000fd2 l     F .text	00000014 pi_cl_team_critical_exit
1c001068 l     F .text	00000018 rt_team_critical_exit
1c00102c l     F .text	0000001c __rt_team_barrier
1c001378 l     F .text	0000000e rt_compiler_barrier
1c001080 l     F .text	000000e2 __cl_dma_copy
1c001162 l     F .text	0000011e __cl_dma_memcpy
1c001280 l     F .text	00000072 __cl_dma_wait
1c0012f2 l     F .text	0000001c pi_cl_dma_wait
1c00130e l     F .text	00000042 pi_cl_dma_cmd
1c001386 l     F .text	0000001e pmsis_kickoff
1c0013a4 l     F .text	00000014 pmsis_exit
00000000 l    df *ABS*	00000000 init.c
1c001848 l     F .text	00000026 cluster_start
1c004b08 l     O .init_array	00000004 ctor_list
1c004b44 l     O .fini_array	00000004 dtor_list
00000000 l    df *ABS*	00000000 irq.c
00000000 l    df *ABS*	00000000 alloc.c
00000000 l    df *ABS*	00000000 time.c
1c0022b6 l     F .text	00000018 __rt_time_poweroff
1c0022ce l     F .text	00000018 __rt_time_poweron
1c0052a8 l     O .bss	00000004 timer_count
00000000 l    df *ABS*	00000000 time_irq.c
00000000 l    df *ABS*	00000000 freq.c
00000000 l    df *ABS*	00000000 pmu_driver.c
1c00276c l     F .text	0000002c SetFllMultDivFactors
1c002798 l     F .text	00000026 soc_eu_fcEventMask_setEvent
1c0050a4 l     O .data	00000007 SystemStateToSCUFastSeq
1c0050bc l     O .data	00000003 ToHWDCDC_Pos
1c0050cc l     O .data	00000004 RetPMUStateToPMUState
00000000 l    df *ABS*	00000000 cluster.c
1c002b92 l     F .text	00000062 __rt_init_cluster_data
1c002bf4 l     F .text	00000064 __rt_cluster_init
1c002c58 l     F .text	00000124 __rt_cluster_mount_step
00000000 l    df *ABS*	00000000 pulpos_emu.c
1c002f32 l     F .text	0000003c __rt_cluster_pulpos_emu_init
1c005150 l     O .bss	0000002c __rt_pulpos_emu_global_cluster_task
1c0052ac l     O .bss	00000004 __rt_fc_cluster_device
00000000 l    df *ABS*	00000000 cluster_call.c
00000000 l    df *ABS*	00000000 pads-v1.c
00000000 l    df *ABS*	00000000 gpio-v2.c
1c00517c l     O .bss	00000098 __rt_gpio
00000000 l    df *ABS*	00000000 i2s-v1.c
1c00327c l     F .text	00000034 __rt_i2s_resume
1c0032b0 l     F .text	00000028 __rt_i2s_setfreq_after
1c0032d8 l     F .text	0000002c __rt_i2s_setfreq_before
1c0052b8 l     O .bss	00000004 __rt_i2s_first
00000000 l    df *ABS*	00000000 spim-v2.c
1c0052bc l     O .bss	00000008 __rt_spim_open_count
00000000 l    df *ABS*	00000000 semihost.c
1c003a1e l     F .text	0000000e __internal_semihost
00000000 l    df *ABS*	00000000 fprintf.c
00000000 l    df *ABS*	00000000 prf.c
1c003a62 l     F .text	00000092 _to_x
1c003af4 l     F .text	00000020 _rlrshift
1c003b14 l     F .text	00000044 _ldiv5
1c003b58 l     F .text	00000034 _get_digit
00000000 l    df *ABS*	00000000 uart.c
1c004668 l     F .text	00000024 __rt_uart_setup.isra.5
1c00468c l     F .text	00000020 __rt_uart_setfreq_after
1c0046ac l     F .text	00000042 __rt_uart_wait_tx_done.isra.6
1c0046ee l     F .text	0000002a __rt_uart_setfreq_before
1c004718 l     F .text	00000042 __rt_uart_cluster_req
1c00475a l     F .text	00000026 soc_eu_fcEventMask_setEvent
1c005294 l     O .bss	00000010 __rt_uart
00000000 l    df *ABS*	00000000 pe-eu-v3.o
1c004a12 l       .text	00000000 __rt_slave_start
1c004968 l       .text	00000000 __rt_master_event
1c00497c l       .text	00000000 __rt_master_loop
1c00496c l       .text	00000000 __rt_push_event_to_fc_retry
1c004a04 l       .text	00000000 __rt_push_event_to_fc_wait
1c0049f6 l       .text	00000000 __rt_master_sleep
1c004984 l       .text	00000000 __rt_master_loop_update_next
1c0049d8 l       .text	00000000 __rt_no_stack_check
1c0049e4 l       .text	00000000 __rt_master_no_slave_barrier
1c0049f4 l       .text	00000000 __rt_master_loop_no_slave
1c004a30 l       .text	00000000 __rt_fork_return
1c004a34 l       .text	00000000 __rt_wait_for_dispatch
1c004a4a l       .text	00000000 __rt_other_entry
1c004a44 l       .text	00000000 __rt_fork_entry
1c004a72 l       .text	00000000 __rt_no_stack_check_end
1c004ae4 l       .text	00000000 __rt_dma_2d_done
1c004aa2 l       .text	00000000 __rt_dma_2d_redo
1c004aaa l       .text	00000000 __rt_dma_2d_not_last
1c004acc l       .text	00000000 __rt_dma_2d_exit
00000000 l    df *ABS*	00000000 libgcc2.c
1c003904 g     F .text	00000004 putchar
00000000 g       *ABS*	00000000 __rt_debug_init_config_trace
00000350 g     O .data_tiny_fc	00000004 __rt_hyper_pending_emu_stride
1c001c62 g     F .text	00000038 __rt_fc_cluster_lock
1c002928 g     F .text	000000a2 InitOneFll
00000000 g       *ABS*	00000000 __RT_DEBUG_CONFIG
1c00ef60 g     O .bss	00000004 __rt_cluster_tasks
1c001e2c g     F .text	00000020 __rt_bridge_send_notif
1c001f86 g     F .text	00000074 rt_event_alloc
00000338 g     O .data_tiny_fc	00000001 __rt_hyper_pending_emu_do_memcpy
1c00205a g     F .text	00000064 __rt_event_execute
1c001a9e g     F .text	00000052 __rt_irq_init
1c002132 g     F .text	00000048 rt_user_alloc
00000310 g     O .data_tiny_fc	00000004 __rt_hyper_pending_hyper_addr
1c002d82 g     F .text	000000d4 pi_cluster_open
1c0052d4 g     O .bss	00000004 rows
1c003a38 g     F .text	0000002a printf
ffffffff g       *ABS*	00000000 pulp__L2
1c00223e g     F .text	0000006a __rt_allocs_init
1c00ef44 g     O .bss	00000004 __rt_alloc_l1
1c002d7c g     F .text	00000006 pi_cluster_conf_init
ffffffff g       *ABS*	00000000 pulp__PE
1c001a00 g     F .text	0000004c rt_irq_set_handler
00000314 g     O .data_tiny_fc	00000004 __rt_hyper_pending_addr
00000308 g     O .data_tiny_fc	00000004 __rt_hyper_udma_handle
1c002a8c g     F .text	00000040 InitFlls
00000018 g     O .data_tiny_fc	00000004 __rt_first_free
00000001 g       *ABS*	00000000 __ACTIVE_FC
00000400 g       *ABS*	00000000 __rt_cl_slave_stack_size
1c00272e g     F .text	0000003e __rt_freq_init
1c00186e g     F .text	00000166 __rt_init
00000001 g       *ABS*	00000000 __FC
1c002b78 g     F .text	00000012 __rt_fll_init
1b0013d0 g       .stack	00000000 __fc_tcdm_end
1c001f12 g     F .text	00000034 __rt_bridge_init
00000018 g     O .data_tiny_l1	00000004 __rt_cluster_nb_active_pe
0000032c g     O .data_tiny_fc	00000004 __rt_hyper_pending_emu_hyper_addr
1c004b04 g       .text	00000000 _etext
0000030c g     O .data_tiny_fc	00000004 __rt_hyper_pending_base
1c004f64 g       .data	00000000 sdata
00000001 g       *ABS*	00000000 __rt_nb_cluster
00000390 g     O .data_tiny_fc	00000004 __rtc_handler
1c0021c6 g     F .text	0000002e rt_alloc
1c0052d8 g     O .bss	0000001c cl_conf
1c004642 g     F .text	00000026 __rt_uart_cluster_req_done
1c0019d4 g     F .text	00000028 __rt_deinit
1b000bb8 g     O .stack	00000001 camera_isAwaked
1c00010e g       .text	00000000 __rt_event_enqueue
1c002360 g     F .text	0000001e rt_time_wait_us
1c0004ec g       .text	00000000 __rt_gpio_handler
1c000246 g       .text	00000000 __rt_illegal_instr
1c002216 g     F .text	00000028 __rt_alloc_init_l1_for_fc
1c0031be g     F .text	0000000a __rt_padframe_init
1c004b4c g       .fini_array	00000000 __DTOR_END__
0000020c g       *ABS*	00000000 __cluster_text_size
1c003896 g     F .text	00000028 puts
1c001618 g     F .text	000000b2 generateAndPrintRandomMatrix
1c004fb8  w    O .data	00000018 __rt_padframe_profiles
00000330 g     O .data_tiny_fc	00000004 __rt_hyper_pending_emu_addr
00000344 g     O .data_tiny_fc	00000004 __rt_hyper_pending_tasks_last
1c002014 g     F .text	00000022 rt_event_get_blocking
1c005150 g       .bss	00000000 _bss_start
1c005150 g       .data	00000000 edata
1c0021f4 g     F .text	00000022 __rt_alloc_init_l1
1c00509c  w    O .data	00000004 __rt_iodev_uart_baudrate
1c000174 g       .text	00000000 __rt_remote_enqueue_event
1c0050ac g     O .data	00000010 PMUState
1c004f64 g       .data	00000000 _sdata
10000020 g       .l1cluster_g	00000000 __l1_end
1c0024fc g     F .text	00000134 rt_periph_copy
1c0037b6 g     F .text	00000038 __rt_putc_uart
1b000398 g     O .stack	00000800 __rt_fc_stack
00000010 g     O .data_tiny_l1	00000004 __rt_dma_last_pending
1c00013c g       .text	00000000 __rt_bridge_enqueue_event
1c003b8c g     F .text	00000ab6 _prf
10000020 g       .l1cluster_g	00000000 _libgomp_start
1c000842 g     F .text	0000032e .hidden __umoddi3
1c00240a g     F .text	000000f2 __rt_timer_handler
1c00ef48 g     O .bss	00000004 __rt_alloc_l2
1b0013d0 g       .stack	00000000 stack
1c000506 g     F .text	0000033c .hidden __udivdi3
1c001710 g     F .text	000000c8 helloworld
1c0039a4 g     F .text	00000008 abort
1c001ffa g     F .text	0000001a rt_event_get
1c00ef54 g     O .bss	00000008 __rt_freq_domains
0000001c g       *ABS*	00000000 _l1_preload_size
1c00010c g       .text	00000000 _init
1c00ef8c g       .bss	00000000 _bss_end
1c004f98  w    O .data	00000010 __rt_padframe_hyper
1c001e0e g     F .text	0000001e __rt_bridge_set_available
1c004a74 g       .text	00000000 __rt_dma_2d
1c0048f8 g       .text	00000000 __rt_pe_start
1c00ef50 g     O .bss	00000004 first_delayed
0000038c g     O .data_tiny_fc	00000004 __rt_rtc_init_done
00000008 g       *ABS*	00000000 __NB_ACTIVE_PE
1c00314e g     F .text	00000048 pi_cluster_send_task_to_cl
1c0029ca g     F .text	000000c2 __rt_pmu_cluster_power_up
1b000bd0 g       .stack	00000000 stack_start
00000004 g     O .data_tiny_l1	0000000c __rt_cluster_pool
00010000 g       *ABS*	00000000 __L1Cl
1c004790 g     F .text	0000008a __rt_uart_open
1c001bda g     F .text	00000022 __rt_utils_init
1c003054 g     F .text	000000fa pi_cluster_send_task_to_cl_async
1c004f88  w    O .data	00000010 __rt_padframe_default
1c0038be g     F .text	00000018 fputc_locked
1c0022ac g     F .text	0000000a pi_cl_l1_free
1c0052f4 g     O .bss	00000004 cols
1c00481a g     F .text	0000004e rt_uart_close
1c00217a g     F .text	0000004c rt_user_free
1c004b04 g       .init_array	00000000 __CTOR_LIST__
1c002630 g     F .text	00000056 __rt_periph_wait_event
1c0026e4 g     F .text	0000004a rt_freq_set_and_get
1c003a2c g     F .text	00000006 semihost_write0
1c001a4c  w    F .text	00000002 illegal_insn_handler_c
0000033c g     O .data_tiny_fc	00000004 __rt_hyper_pending_emu_task
1c002e86 g     F .text	00000070 __rt_cluster_push_fc_event
00000320 g     O .data_tiny_fc	00000004 __rt_hyper_end_task
1c0048f8 g       .text	00000000 __cluster_text_start
1c000080 g       .vectors	00000000 _start
1c002112 g     F .text	00000020 rt_user_alloc_init
00000000 g       *ABS*	00000000 __rt_config
00000334 g     O .data_tiny_fc	00000004 __rt_hyper_pending_emu_size
1c00ef8c g       .bss	00000000 _l1_preload_start_inL2
1c001bfc g     F .text	00000032 __rt_fc_lock
10000020 g       .l1cluster_g	00000000 __l1_heap_start
1c001f6e g     F .text	00000018 __rt_wait_event_prepare_blocking
1c001d52 g     F .text	00000072 __rt_bridge_handle_notif
1c00045e g       .text	00000000 __rt_soc_evt_no_udma
1000001c g     O .l1cluster_g	00000004 __rt_cluster_fc_task_lock
00000340 g     O .data_tiny_fc	00000004 __rt_hyper_pending_tasks
1c002036 g     F .text	00000024 rt_event_push
1c001e4c g     F .text	0000001e __rt_bridge_clear_notif
1c0052f8 g     O .bss	0000000c cluster_dev
00000014 g     O .data_tiny_l1	00000004 __rt_dma_first_pending
1c004fd0 g     O .data	000000c0 __hal_debug_struct
1c00237e g     F .text	0000008c __rt_time_init
00080000 g       *ABS*	00000000 __L2
00000008 g       *ABS*	00000000 __rt_nb_pe
1c0000a0 g       .text	00000000 _entry
1c005090 g     O .data	00000004 seed
1c0020be g     F .text	0000002a __rt_wait_event
1c002acc g     F .text	000000ac __rt_pmu_init
1c001a4e g     F .text	00000050 __rt_handle_illegal_instr
1c00372e g     F .text	00000010 memset
1c0017d8 g     F .text	00000070 main
1c002b8a g     F .text	00000002 __rt_fll_deinit
1c0004a4 g       .text	00000000 udma_event_handler_end
1c00ef4c g     O .bss	00000004 __rt_alloc_fc_tcdm
1c003356 g     F .text	0000000a __rt_himax_init
1c001c9a g     F .text	00000036 __rt_fc_cluster_unlock
00000318 g     O .data_tiny_fc	00000004 __rt_hyper_pending_repeat
1c0039ac g     F .text	00000072 __rt_io_init
1c004fa8  w    O .data	00000010 __rt_padframe_hyper_gpio
00000000 g       *ABS*	00000000 __FETCH_ALL
1c005304 g     O .bss	00009c40 matrix
1c005094  w    O .data	00000004 __rt_platform
1c004b40 g       .init_array	00000000 __CTOR_END__
1c003a32 g     F .text	00000006 semihost_exit
1c004b40 g       .fini_array	00000000 __DTOR_LIST__
1c001f46 g     F .text	00000028 __rt_event_init
000002e0 g     O .data_tiny_fc	00000028 __rt_udma_extra_callback_arg
1c0004c8 g       .text	00000000 pwm_event_handler
00000348 g     O .data_tiny_fc	00000004 __rt_hyper_pending_emu_size_2d
1c003908 g     F .text	00000028 _prf_locked
00000000 g       *ABS*	00000000 __USE_UART
1c004f64 g     O .data	00000024 max_values
1c00284a g     F .text	000000de SetFllFrequency
1c002b8c g     F .text	00000002 __rt_flls_constructor
1c0022e6 g     F .text	0000007a rt_event_push_delayed
1c00010c g       .text	00000000 _fini
1c0020e8 g     F .text	00000018 rt_event_wait
1c000090 g       .vectors	00000000 __rt_debug_struct_ptr
1c004c0c g     O .rodata	00000100 .hidden __clz_tab
00000328 g     O .data_tiny_fc	00000004 __rt_hyper_pending_emu_channel
1c004a50 g       .text	00000000 __rt_set_slave_stack
1c0022a8 g     F .text	00000004 pi_cl_l1_malloc
1c0050a0  w    O .data	00000004 __rt_fc_stack_size
1c0003f4 g       .text	00000000 __rt_fc_socevents_handler
000002b8 g     O .data_tiny_fc	00000028 __rt_udma_extra_callback
00000358 g     O .data_tiny_fc	00000034 dev_rtc
1c0038d6 g     F .text	0000002e fputc
1c000200 g       .text	00000000 __rt_call_external_c_function
1c001c2e g     F .text	00000034 __rt_fc_unlock
00000004 g       .data_tiny_l1	00000000 _l1_preload_start
1c0031f6 g     F .text	00000086 __pi_gpio_handler
000002b0 g     O .data_tiny_fc	00000008 __rt_socevents_status
1c001e6a g     F .text	0000003a __rt_bridge_printf_flush
1c005098  w    O .data	00000004 __rt_iodev
0000001c g     O .data_tiny_fc	00000014 __rt_sched
1c000000 g       .vectors	00000000 __irq_vector_base
1c005150 g       .data	00000000 _edata
00000000 g       *ABS*	00000000 __ZERO
1c002686 g     F .text	0000005e __rt_periph_init
1c003372 g     F .text	00000012 __rt_spim_init
1c001dc4 g     F .text	0000004a __rt_bridge_check_connection
1c002f6e g     F .text	00000090 rt_cluster_call
00000800 g       *ABS*	00000000 __rt_stack_size
1c0019fc g     F .text	00000004 pi_open_from_conf
ffffffff g       *ABS*	00000000 pulp__FC
1c003304 g     F .text	00000052 __rt_i2s_init
00000003 g       *ABS*	00000000 __rt_debug_init_config
1c00ef64 g     O .bss	00000028 __rt_fc_cluster_data
1c003930 g     F .text	00000074 exit
1c002100 g     F .text	00000012 __rt_event_sched_init
0000034c g     O .data_tiny_fc	00000004 __rt_hyper_pending_emu_length
1c0002b4 g       .text	00000000 udma_event_handler
1c002e56 g     F .text	00000030 pi_cluster_close
00000354 g     O .data_tiny_fc	00000004 pwmEventsStatus
1c001baa g     F .text	00000030 __rt_cbsys_exec
0000ffe0 g       .l1cluster_g	00000000 __l1_heap_size
1c0027be g     F .text	0000008c __rt_pmu_cluster_power_down
0000031c g     O .data_tiny_fc	00000004 __rt_hyper_pending_repeat_size
1b000b98 g     O .stack	00000004 __rt_debug_config_trace
1c0052a4  w    O .bss	00000004 __rt_iodev_uart_channel
1c0015d8 g     F .text	00000040 my_rand
1c0000a0 g       .text	00000000 _stext
1c0050c0 g     O .data	00000004 PMURetentionState
ffffffff g       *ABS*	00000000 pulp__L1CL
1c003196 g     F .text	00000028 rt_padframe_set
1c00ef5c g     O .bss	00000004 __rt_wakeup_use_fast
00000400 g       *ABS*	00000000 __rt_cl_master_stack_size
1c00373e g     F .text	0000001a strchr
1c001ea4 g     F .text	0000006e __rt_bridge_req_shutdown
1c004780 g     F .text	00000010 rt_uart_conf_init
1c004b04 g       .text	00000000 __cluster_text_end
1c00489c g     F .text	0000005c __rt_uart_init
1c0013b8 g     F .text	00000220 serch_matrix
1c00efa8 g       *ABS*	00000000 __l2_end
1c002ffe g     F .text	00000056 rt_cluster_mount
1c003360 g     F .text	00000012 __rt_rtc_init
1c004868 g     F .text	00000034 rt_uart_cluster_write
1c000098 g       .vectors	00000000 __rt_semihosting_call
1b000b9c g     O .stack	00000004 __rt_debug_config
1c002b8e g     F .text	00000004 __rt_fll_set_freq
1c001b6c g     F .text	0000003e __rt_cbsys_add
1c002ef6 g     F .text	0000003c __rt_cluster_new
1c003758 g     F .text	0000005e __rt_putc_debug_bridge
1c004b04 g       .text	00000000 _endtext
00000324 g     O .data_tiny_fc	00000004 __rt_hyper_current_task
ffffffff g       *ABS*	00000000 pulp__L1FC
1c0016ca g     F .text	00000046 cluster_delegate
1c0050c4 g     O .data	00000008 FllsFrequency
00000030 g     O .data_tiny_fc	00000280 periph_channels



Disassembly of section .vectors:

1c000000 <__irq_vector_base>:


#ifdef ARCHI_CORE_HAS_1_10
  j __rt_illegal_instr
#else
  j __rt_no_irq_handler
1c000000:	0940006f          	j	1c000094 <__rt_no_irq_handler>
#endif

  j __rt_no_irq_handler
1c000004:	0900006f          	j	1c000094 <__rt_no_irq_handler>
  j __rt_no_irq_handler
1c000008:	08c0006f          	j	1c000094 <__rt_no_irq_handler>
  j __rt_no_irq_handler
1c00000c:	0880006f          	j	1c000094 <__rt_no_irq_handler>
  j __rt_no_irq_handler
1c000010:	0840006f          	j	1c000094 <__rt_no_irq_handler>
  j __rt_no_irq_handler
1c000014:	0800006f          	j	1c000094 <__rt_no_irq_handler>
  j __rt_no_irq_handler
1c000018:	07c0006f          	j	1c000094 <__rt_no_irq_handler>
  j __rt_no_irq_handler
1c00001c:	0780006f          	j	1c000094 <__rt_no_irq_handler>
  j __rt_no_irq_handler
1c000020:	0740006f          	j	1c000094 <__rt_no_irq_handler>
  j __rt_no_irq_handler
1c000024:	0700006f          	j	1c000094 <__rt_no_irq_handler>
  j __rt_no_irq_handler
1c000028:	06c0006f          	j	1c000094 <__rt_no_irq_handler>
  j __rt_no_irq_handler
1c00002c:	0680006f          	j	1c000094 <__rt_no_irq_handler>
  j __rt_no_irq_handler
1c000030:	0640006f          	j	1c000094 <__rt_no_irq_handler>
  j __rt_no_irq_handler
1c000034:	0600006f          	j	1c000094 <__rt_no_irq_handler>
  j __rt_no_irq_handler
1c000038:	05c0006f          	j	1c000094 <__rt_no_irq_handler>
  j __rt_no_irq_handler
1c00003c:	0580006f          	j	1c000094 <__rt_no_irq_handler>
  j __rt_no_irq_handler
1c000040:	0540006f          	j	1c000094 <__rt_no_irq_handler>
  j __rt_no_irq_handler
1c000044:	0500006f          	j	1c000094 <__rt_no_irq_handler>
  j __rt_no_irq_handler
1c000048:	04c0006f          	j	1c000094 <__rt_no_irq_handler>
  j __rt_no_irq_handler
1c00004c:	0480006f          	j	1c000094 <__rt_no_irq_handler>
  j __rt_no_irq_handler
1c000050:	0440006f          	j	1c000094 <__rt_no_irq_handler>
  j __rt_no_irq_handler
1c000054:	0400006f          	j	1c000094 <__rt_no_irq_handler>
  j __rt_no_irq_handler
1c000058:	03c0006f          	j	1c000094 <__rt_no_irq_handler>
  j __rt_no_irq_handler
1c00005c:	0380006f          	j	1c000094 <__rt_no_irq_handler>
  j __rt_no_irq_handler
1c000060:	0340006f          	j	1c000094 <__rt_no_irq_handler>
  j __rt_no_irq_handler
1c000064:	0300006f          	j	1c000094 <__rt_no_irq_handler>
  j __rt_no_irq_handler
1c000068:	02c0006f          	j	1c000094 <__rt_no_irq_handler>
  j __rt_no_irq_handler
1c00006c:	0280006f          	j	1c000094 <__rt_no_irq_handler>
  j __rt_no_irq_handler
1c000070:	0240006f          	j	1c000094 <__rt_no_irq_handler>
  j __rt_no_irq_handler
1c000074:	0200006f          	j	1c000094 <__rt_no_irq_handler>
  j __rt_no_irq_handler
1c000078:	01c0006f          	j	1c000094 <__rt_no_irq_handler>
  j __rt_no_irq_handler
1c00007c:	0180006f          	j	1c000094 <__rt_no_irq_handler>

1c000080 <_start>:


  .org 0x80
  .global _start
_start:
  jal x0, _entry
1c000080:	0200006f          	j	1c0000a0 <_entry>


#ifndef __RT_MODE_BARE

  jal x0, __rt_illegal_instr
1c000084:	1c20006f          	j	1c000246 <__rt_illegal_instr>
	...

1c000090 <__rt_debug_struct_ptr>:
1c000090:	4fd0                	lw	a2,28(a5)
1c000092:	1c00                	addi	s0,sp,560

1c000094 <__rt_no_irq_handler>:
  .word __hal_debug_struct

#endif

__rt_no_irq_handler:
  j __rt_no_irq_handler
1c000094:	0000006f          	j	1c000094 <__rt_no_irq_handler>

1c000098 <__rt_semihosting_call>:

#endif

  .global __rt_semihosting_call
__rt_semihosting_call:
  ebreak
1c000098:	00100073          	ebreak
  jr          ra
1c00009c:	00008067          	ret

Disassembly of section .text:

1c0000a0 <_entry>:
  csrw    0x7A1, x0
1c0000a0:	7a101073          	csrw	pcmr,zero
  csrr    a0, 0xF14
1c0000a4:	f1402573          	csrr	a0,mhartid
  andi    a1, a0, 0x1f
1c0000a8:	01f57593          	andi	a1,a0,31
  srli    a0, a0, 5
1c0000ac:	8115                	srli	a0,a0,0x5
  li      a2, ARCHI_FC_CID
1c0000ae:	02000613          	li	a2,32
  bne     a0, a2, __rt_pe_start
1c0000b2:	00c50463          	beq	a0,a2,1c0000ba <_entry+0x1a>
1c0000b6:	0430406f          	j	1c0048f8 <__cluster_text_start>
  la      t0, _bss_start
1c0000ba:	00005297          	auipc	t0,0x5
1c0000be:	09628293          	addi	t0,t0,150 # 1c005150 <_edata>
  la      t1, _bss_end
1c0000c2:	0000f317          	auipc	t1,0xf
1c0000c6:	eca30313          	addi	t1,t1,-310 # 1c00ef8c <_bss_end>
  sw      zero,0(t0)
1c0000ca:	0002a023          	sw	zero,0(t0)
  addi    t0, t0, 4
1c0000ce:	0291                	addi	t0,t0,4
  bltu    t0, t1, 1b
1c0000d0:	fe62ede3          	bltu	t0,t1,1c0000ca <_entry+0x2a>
  la   a0, __rt_fc_stack_size
1c0000d4:	00005517          	auipc	a0,0x5
1c0000d8:	fcc50513          	addi	a0,a0,-52 # 1c0050a0 <__rt_fc_stack_size>
  lw   a0, 0(a0)
1c0000dc:	4108                	lw	a0,0(a0)
  la   x2, __rt_fc_stack
1c0000de:	ff000117          	auipc	sp,0xff000
1c0000e2:	2ba10113          	addi	sp,sp,698 # 1b000398 <__rt_fc_stack>
  add  x2, x2, a0
1c0000e6:	912a                	add	sp,sp,a0
  jal  x1, __rt_init
1c0000e8:	786010ef          	jal	ra,1c00186e <__rt_init>
  addi  a0, x0, 0
1c0000ec:	00000513          	li	a0,0
  addi  a1, x0, 0
1c0000f0:	00000593          	li	a1,0
  la    t2, main
1c0000f4:	00001397          	auipc	t2,0x1
1c0000f8:	6e438393          	addi	t2,t2,1764 # 1c0017d8 <main>
  jalr  x1, t2
1c0000fc:	000380e7          	jalr	t2
  mv    s0, a0
1c000100:	842a                	mv	s0,a0
  jal  x1, __rt_deinit
1c000102:	0d3010ef          	jal	ra,1c0019d4 <__rt_deinit>
  mv   a0, s0
1c000106:	8522                	mv	a0,s0
  jal  x1, exit
1c000108:	029030ef          	jal	ra,1c003930 <exit>

1c00010c <_fini>:
  ret
1c00010c:	8082                	ret

1c00010e <__rt_event_enqueue>:
  //   x10/a0: temporary register
  //   x11/a1: the event
  //   x12/a2: temporary register

  // First check if it is a normal event
  andi    x10, x11, 0x3
1c00010e:	0035f513          	andi	a0,a1,3
  bne     x10, x0, __rt_handle_special_event
1c000112:	02051063          	bnez	a0,1c000132 <__rt_handle_special_event>

  // Enqueue normal event
  la      x10, __rt_sched
1c000116:	e4000517          	auipc	a0,0xe4000
1c00011a:	f0650513          	addi	a0,a0,-250 # 1c <_l1_preload_size>
  sw      x0, RT_EVENT_T_NEXT(x11)
1c00011e:	0005a023          	sw	zero,0(a1)
  lw      x12, RT_SCHED_T_FIRST(x10)
1c000122:	4110                	lw	a2,0(a0)
  beqz    x12, __rt_no_first
1c000124:	c601                	beqz	a2,1c00012c <__rt_no_first>
  lw      x12, RT_SCHED_T_LAST(x10)
1c000126:	4150                	lw	a2,4(a0)
  sw      x11, RT_EVENT_T_NEXT(x12)
1c000128:	c20c                	sw	a1,0(a2)
  j       __rt_common
1c00012a:	a011                	j	1c00012e <__rt_common>

1c00012c <__rt_no_first>:

__rt_no_first:
  sw      x11, RT_SCHED_T_FIRST(x10)
1c00012c:	c10c                	sw	a1,0(a0)

1c00012e <__rt_common>:

__rt_common:
  sw      x11, RT_SCHED_T_LAST(x10)
1c00012e:	c14c                	sw	a1,4(a0)

1c000130 <enqueue_end>:

enqueue_end:
  jr          x9
1c000130:	8482                	jr	s1

1c000132 <__rt_handle_special_event>:

__rt_handle_special_event:
  li      x10, ~0x3
1c000132:	5571                	li	a0,-4
  and     x11, x11, x10
1c000134:	8de9                	and	a1,a1,a0
  lw      x12, PI_CALLBACK_T_ENTRY(x11)
1c000136:	41d0                	lw	a2,4(a1)
  lw      x10, PI_CALLBACK_T_ARG(x11)
1c000138:	4588                	lw	a0,8(a1)
  j       __rt_call_external_c_function
1c00013a:	a0d9                	j	1c000200 <__rt_call_external_c_function>

1c00013c <__rt_bridge_enqueue_event>:
    // to enqueue an event to the FC scheduler.

    .global __rt_bridge_enqueue_event
__rt_bridge_enqueue_event:

    sw  x8, -4(sp)
1c00013c:	fe812e23          	sw	s0,-4(sp)
    sw  x9, -8(sp)
1c000140:	fe912c23          	sw	s1,-8(sp)
    sw  a0, -12(sp)
1c000144:	fea12a23          	sw	a0,-12(sp)
    sw  a1, -16(sp)
1c000148:	feb12823          	sw	a1,-16(sp)
    sw  a2, -20(sp)
1c00014c:	fec12623          	sw	a2,-20(sp)

    // Everything is done from C code
    la      x12, __rt_bridge_handle_notif
1c000150:	00002617          	auipc	a2,0x2
1c000154:	c0260613          	addi	a2,a2,-1022 # 1c001d52 <__rt_bridge_handle_notif>
    jal     x9, __rt_call_external_c_function
1c000158:	0a8004ef          	jal	s1,1c000200 <__rt_call_external_c_function>

    lw  x8, -4(sp)
1c00015c:	ffc12403          	lw	s0,-4(sp)
    lw  x9, -8(sp)
1c000160:	ff812483          	lw	s1,-8(sp)
    lw  a0, -12(sp)
1c000164:	ff412503          	lw	a0,-12(sp)
    lw  a1, -16(sp)
1c000168:	ff012583          	lw	a1,-16(sp)
    lw  a2, -20(sp)
1c00016c:	fec12603          	lw	a2,-20(sp)

    mret
1c000170:	30200073          	mret

1c000174 <__rt_remote_enqueue_event>:
    // The FC must get it and push it to the scheduler

    .global __rt_remote_enqueue_event
__rt_remote_enqueue_event:

    sw  x8, -4(sp)
1c000174:	fe812e23          	sw	s0,-4(sp)
    sw  x9, -8(sp)
1c000178:	fe912c23          	sw	s1,-8(sp)
    sw  a0, -12(sp)
1c00017c:	fea12a23          	sw	a0,-12(sp)
    sw  a1, -16(sp)
1c000180:	feb12823          	sw	a1,-16(sp)
    sw  a2, -20(sp)
1c000184:	fec12623          	sw	a2,-20(sp)

#ifndef ARCHI_NB_CLUSTER
    li   x8, 1
1c000188:	4405                	li	s0,1
#else
    li   x8, ARCHI_NB_CLUSTER
#endif
    la   x9, __rt_fc_cluster_data
1c00018a:	0000f497          	auipc	s1,0xf
1c00018e:	dda48493          	addi	s1,s1,-550 # 1c00ef64 <__rt_fc_cluster_data>

1c000192 <__rt_remote_enqueue_event_loop_cluster>:

    // Loop over the clusters to see if there is an event to push
__rt_remote_enqueue_event_loop_cluster:
    lw   a1, RT_FC_CLUSTER_DATA_T_EVENTS(x9)
1c000192:	40cc                	lw	a1,4(s1)
    beq  a1, x0, __rt_remote_enqueue_event_loop_cluster_continue
1c000194:	02058d63          	beqz	a1,1c0001ce <__rt_remote_enqueue_event_loop_cluster_continue>

    // Everytime a task is finished, first check if we can update the queue head
    // as it is not updated by cluster side to avoid race conditions.
    // At least this task won t be there anymore after we update, and maybe even
    // more tasks, which is not an issue, as we compare against the head.
    lw   a1, RT_FC_CLUSTER_DATA_T_CLUSTER_POOL(x9)
1c000198:	48cc                	lw	a1,20(s1)
    lw   a0, RT_CLUSTER_CALL_POOL_T_FIRST_CALL_FC(a1)
1c00019a:	41c8                	lw	a0,4(a1)

    beq  a0, x0, __rt_cluster_pool_update_end
1c00019c:	00050e63          	beqz	a0,1c0001b8 <__rt_cluster_pool_update_end>

1c0001a0 <__rt_cluster_pool_update_loop>:

__rt_cluster_pool_update_loop:
    lw    a2, RT_CLUSTER_TASK_PENDING(a0)
1c0001a0:	5150                	lw	a2,36(a0)
    bnez  a2, __rt_cluster_pool_update_loop_end
1c0001a2:	e219                	bnez	a2,1c0001a8 <__rt_cluster_pool_update_loop_end>

    lw   a0, RT_CLUSTER_TASK_NEXT(a0)
1c0001a4:	5108                	lw	a0,32(a0)
    bnez a0, __rt_cluster_pool_update_loop
1c0001a6:	fd6d                	bnez	a0,1c0001a0 <__rt_cluster_pool_update_loop>

1c0001a8 <__rt_cluster_pool_update_loop_end>:


__rt_cluster_pool_update_loop_end:
    
    beqz a0, __rt_cluster_pool_update_no_current
1c0001a8:	c501                	beqz	a0,1c0001b0 <__rt_cluster_pool_update_no_current>

    lw   a0, RT_CLUSTER_TASK_NEXT(a0)
1c0001aa:	5108                	lw	a0,32(a0)
    sw   a0, RT_CLUSTER_CALL_POOL_T_FIRST_CALL_FC(a1)
1c0001ac:	c1c8                	sw	a0,4(a1)

    j    __rt_cluster_pool_update_end
1c0001ae:	a029                	j	1c0001b8 <__rt_cluster_pool_update_end>

1c0001b0 <__rt_cluster_pool_update_no_current>:

__rt_cluster_pool_update_no_current:

    sw   x0, RT_CLUSTER_CALL_POOL_T_FIRST_CALL_FC(a1)
1c0001b0:	0005a223          	sw	zero,4(a1)
    sw   x0, RT_CLUSTER_CALL_POOL_T_FIRST_LAST_FC(a1)
1c0001b4:	0005a423          	sw	zero,8(a1)

1c0001b8 <__rt_cluster_pool_update_end>:




__rt_cluster_pool_update_end:
    lw   a1, RT_FC_CLUSTER_DATA_T_EVENTS(x9)
1c0001b8:	40cc                	lw	a1,4(s1)

    lw   a2, RT_FC_CLUSTER_DATA_T_TRIG_ADDR(x9)
1c0001ba:	4890                	lw	a2,16(s1)
    sw   x0, RT_FC_CLUSTER_DATA_T_EVENTS(x9)
1c0001bc:	0004a223          	sw	zero,4(s1)

    sw   x0, 0(a2)
1c0001c0:	00062023          	sw	zero,0(a2)

    la   x9, __rt_remote_enqueue_event_loop_cluster_continue
1c0001c4:	00000497          	auipc	s1,0x0
1c0001c8:	00a48493          	addi	s1,s1,10 # 1c0001ce <__rt_remote_enqueue_event_loop_cluster_continue>
    j    __rt_event_enqueue
1c0001cc:	b789                	j	1c00010e <__rt_event_enqueue>

1c0001ce <__rt_remote_enqueue_event_loop_cluster_continue>:

__rt_remote_enqueue_event_loop_cluster_continue:
    addi x8, x8, -1
1c0001ce:	147d                	addi	s0,s0,-1
    bgt  x8, x0, __rt_remote_enqueue_event_loop_next_cluster
1c0001d0:	00804e63          	bgtz	s0,1c0001ec <__rt_remote_enqueue_event_loop_next_cluster>



    lw  x8, -4(sp)
1c0001d4:	ffc12403          	lw	s0,-4(sp)
    lw  x9, -8(sp)
1c0001d8:	ff812483          	lw	s1,-8(sp)
    lw  a0, -12(sp)
1c0001dc:	ff412503          	lw	a0,-12(sp)
    lw  a1, -16(sp)
1c0001e0:	ff012583          	lw	a1,-16(sp)
    lw  a2, -20(sp)
1c0001e4:	fec12603          	lw	a2,-20(sp)

    mret
1c0001e8:	30200073          	mret

1c0001ec <__rt_remote_enqueue_event_loop_next_cluster>:

__rt_remote_enqueue_event_loop_next_cluster:
    la   x9, __rt_fc_cluster_data
1c0001ec:	0000f497          	auipc	s1,0xf
1c0001f0:	d7848493          	addi	s1,s1,-648 # 1c00ef64 <__rt_fc_cluster_data>
    li   a1, RT_FC_CLUSTER_DATA_T_SIZEOF
1c0001f4:	02800593          	li	a1,40
    mul  a1, x8, a1
1c0001f8:	02b405b3          	mul	a1,s0,a1
    add  x9, x9, a1
1c0001fc:	94ae                	add	s1,s1,a1
    j __rt_remote_enqueue_event_loop_cluster
1c0001fe:	bf51                	j	1c000192 <__rt_remote_enqueue_event_loop_cluster>

1c000200 <__rt_call_external_c_function>:
#endif

  .global __rt_call_external_c_function
__rt_call_external_c_function:

    add  sp, sp, -128
1c000200:	7119                	addi	sp,sp,-128

    sw   ra, 0x00(sp)
1c000202:	c006                	sw	ra,0(sp)
    sw   gp, 0x04(sp)
1c000204:	c20e                	sw	gp,4(sp)
    sw   tp, 0x08(sp)
1c000206:	c412                	sw	tp,8(sp)
    sw   t0, 0x0C(sp)
1c000208:	c616                	sw	t0,12(sp)
    sw   t1, 0x10(sp)
1c00020a:	c81a                	sw	t1,16(sp)
    sw   t2, 0x14(sp)
1c00020c:	ca1e                	sw	t2,20(sp)
    sw   a3, 0x24(sp)
1c00020e:	d236                	sw	a3,36(sp)
    sw   a4, 0x28(sp)
1c000210:	d43a                	sw	a4,40(sp)
    sw   a5, 0x2C(sp)
1c000212:	d63e                	sw	a5,44(sp)
    sw   a6, 0x30(sp)
1c000214:	d842                	sw	a6,48(sp)
    sw   a7, 0x34(sp)
1c000216:	da46                	sw	a7,52(sp)
    sw   t3, 0x38(sp)
1c000218:	dc72                	sw	t3,56(sp)
    sw   t4, 0x3C(sp)
1c00021a:	de76                	sw	t4,60(sp)
    sw   t5, 0x40(sp)
1c00021c:	c0fa                	sw	t5,64(sp)
    sw   t6, 0x4C(sp)
1c00021e:	c6fe                	sw	t6,76(sp)

    jalr ra, a2
1c000220:	000600e7          	jalr	a2

    lw   ra, 0x00(sp)
1c000224:	4082                	lw	ra,0(sp)
    lw   gp, 0x04(sp)
1c000226:	4192                	lw	gp,4(sp)
    lw   tp, 0x08(sp)
1c000228:	4222                	lw	tp,8(sp)
    lw   t0, 0x0C(sp)
1c00022a:	42b2                	lw	t0,12(sp)
    lw   t1, 0x10(sp)
1c00022c:	4342                	lw	t1,16(sp)
    lw   t2, 0x14(sp)
1c00022e:	43d2                	lw	t2,20(sp)
    lw   a3, 0x24(sp)
1c000230:	5692                	lw	a3,36(sp)
    lw   a4, 0x28(sp)
1c000232:	5722                	lw	a4,40(sp)
    lw   a5, 0x2C(sp)
1c000234:	57b2                	lw	a5,44(sp)
    lw   a6, 0x30(sp)
1c000236:	5842                	lw	a6,48(sp)
    lw   a7, 0x34(sp)
1c000238:	58d2                	lw	a7,52(sp)
    lw   t3, 0x38(sp)
1c00023a:	5e62                	lw	t3,56(sp)
    lw   t4, 0x3C(sp)
1c00023c:	5ef2                	lw	t4,60(sp)
    lw   t5, 0x40(sp)
1c00023e:	4f06                	lw	t5,64(sp)
    lw   t6, 0x4C(sp)
1c000240:	4fb6                	lw	t6,76(sp)

    add  sp, sp, 128
1c000242:	6109                	addi	sp,sp,128

    jr   x9
1c000244:	8482                	jr	s1

1c000246 <__rt_illegal_instr>:

  .section .text
  
    .global __rt_illegal_instr
__rt_illegal_instr:
    sw   ra, -4(sp)
1c000246:	fe112e23          	sw	ra,-4(sp)
    sw   a0, -8(sp)
1c00024a:	fea12c23          	sw	a0,-8(sp)
    la   a0, __rt_handle_illegal_instr
1c00024e:	00002517          	auipc	a0,0x2
1c000252:	80050513          	addi	a0,a0,-2048 # 1c001a4e <__rt_handle_illegal_instr>
    jal  ra, __rt_call_c_function
1c000256:	010000ef          	jal	ra,1c000266 <__rt_call_c_function>
    lw   ra, -4(sp)
1c00025a:	ffc12083          	lw	ra,-4(sp)
    lw   a0, -8(sp)
1c00025e:	ff812503          	lw	a0,-8(sp)
#if PULP_CORE == CORE_RISCV_V4
    mret
1c000262:	30200073          	mret

1c000266 <__rt_call_c_function>:
#endif


__rt_call_c_function:

    add  sp, sp, -128
1c000266:	7119                	addi	sp,sp,-128

    sw   ra, 0x00(sp)
1c000268:	c006                	sw	ra,0(sp)
    sw   gp, 0x04(sp)
1c00026a:	c20e                	sw	gp,4(sp)
    sw   tp, 0x08(sp)
1c00026c:	c412                	sw	tp,8(sp)
    sw   t0, 0x0C(sp)
1c00026e:	c616                	sw	t0,12(sp)
    sw   t1, 0x10(sp)
1c000270:	c81a                	sw	t1,16(sp)
    sw   t2, 0x14(sp)
1c000272:	ca1e                	sw	t2,20(sp)
    sw   a1, 0x1C(sp)
1c000274:	ce2e                	sw	a1,28(sp)
    sw   a2, 0x20(sp)
1c000276:	d032                	sw	a2,32(sp)
    sw   a3, 0x24(sp)
1c000278:	d236                	sw	a3,36(sp)
    sw   a4, 0x28(sp)
1c00027a:	d43a                	sw	a4,40(sp)
    sw   a5, 0x2C(sp)
1c00027c:	d63e                	sw	a5,44(sp)
    sw   a6, 0x30(sp)
1c00027e:	d842                	sw	a6,48(sp)
    sw   a7, 0x34(sp)
1c000280:	da46                	sw	a7,52(sp)
    sw   t3, 0x38(sp)
1c000282:	dc72                	sw	t3,56(sp)
    sw   t4, 0x3C(sp)
1c000284:	de76                	sw	t4,60(sp)
    sw   t5, 0x40(sp)
1c000286:	c0fa                	sw	t5,64(sp)
    sw   t6, 0x4C(sp)
1c000288:	c6fe                	sw	t6,76(sp)

    jalr ra, a0
1c00028a:	000500e7          	jalr	a0

    lw   ra, 0x00(sp)
1c00028e:	4082                	lw	ra,0(sp)
    lw   gp, 0x04(sp)
1c000290:	4192                	lw	gp,4(sp)
    lw   tp, 0x08(sp)
1c000292:	4222                	lw	tp,8(sp)
    lw   t0, 0x0C(sp)
1c000294:	42b2                	lw	t0,12(sp)
    lw   t1, 0x10(sp)
1c000296:	4342                	lw	t1,16(sp)
    lw   t2, 0x14(sp)
1c000298:	43d2                	lw	t2,20(sp)
    lw   a1, 0x1C(sp)
1c00029a:	45f2                	lw	a1,28(sp)
    lw   a2, 0x20(sp)
1c00029c:	5602                	lw	a2,32(sp)
    lw   a3, 0x24(sp)
1c00029e:	5692                	lw	a3,36(sp)
    lw   a4, 0x28(sp)
1c0002a0:	5722                	lw	a4,40(sp)
    lw   a5, 0x2C(sp)
1c0002a2:	57b2                	lw	a5,44(sp)
    lw   a6, 0x30(sp)
1c0002a4:	5842                	lw	a6,48(sp)
    lw   a7, 0x34(sp)
1c0002a6:	58d2                	lw	a7,52(sp)
    lw   t3, 0x38(sp)
1c0002a8:	5e62                	lw	t3,56(sp)
    lw   t4, 0x3C(sp)
1c0002aa:	5ef2                	lw	t4,60(sp)
    lw   t5, 0x40(sp)
1c0002ac:	4f06                	lw	t5,64(sp)
    lw   t6, 0x4C(sp)
1c0002ae:	4fb6                	lw	t6,76(sp)

    add  sp, sp, 128
1c0002b0:	6109                	addi	sp,sp,128

    jr   ra
1c0002b2:	8082                	ret

1c0002b4 <udma_event_handler>:

  .global udma_event_handler
udma_event_handler:

  // Dequeue the transfer which have just finished and mark it as done
  lw   x8, RT_PERIPH_CHANNEL_T_FIRST(x9)
1c0002b4:	4080                	lw	s0,0(s1)
  lw   x11, RT_PERIPH_CHANNEL_T_FIRST_TO_ENQUEUE(x9)   // This is used later on, just put here to fill the slot
1c0002b6:	448c                	lw	a1,8(s1)
  beq  x8, x0, __rt_udma_no_copy                       // Special case where there is no copy, just register the event in the bitfield
1c0002b8:	08040f63          	beqz	s0,1c000356 <__rt_udma_no_copy>
  lw   x12, RT_PERIPH_COPY_T_REPEAT(x8)
1c0002bc:	4c50                	lw	a2,28(s0)
  lw   x10, RT_PERIPH_COPY_T_NEXT(x8)
1c0002be:	4848                	lw	a0,20(s0)
  bne  x12, x0, repeat_transfer
1c0002c0:	04061f63          	bnez	a2,1c00031e <dmaCmd>
  sw   x10, RT_PERIPH_CHANNEL_T_FIRST(x9)
1c0002c4:	c088                	sw	a0,0(s1)
  
  // Handle any special end-of-transfer control
  lw       x10, RT_PERIPH_COPY_T_CTRL(x8)
1c0002c6:	4448                	lw	a0,12(s0)
  bnez     x10, handle_special_end
1c0002c8:	e15d                	bnez	a0,1c00036e <handle_special_end>

1c0002ca <resume_after_special_end>:
resume_after_special_end:


  // Now check if there are some transfers enqueued in the SW FIFO to be enqueued to the UDMA
  beq x11, x0, checkTask
1c0002ca:	02058f63          	beqz	a1,1c000308 <checkTask>

  // x9 contains the pointer to the channel and x11 the first copy

  // Update the FIFO pointers and just copy from node to UDMA
  lw  x12, RT_PERIPH_COPY_T_ENQUEUE_CALLBACK(x11)
1c0002ce:	4990                	lw	a2,16(a1)
  lw  x10, RT_PERIPH_COPY_T_NEXT(x11)
1c0002d0:	49c8                	lw	a0,20(a1)
  beqz x12, __rt_udma_call_enqueue_callback_resume
1c0002d2:	c611                	beqz	a2,1c0002de <__rt_udma_call_enqueue_callback_resume>

  la  x9, __rt_udma_call_enqueue_callback_resume
1c0002d4:	00000497          	auipc	s1,0x0
1c0002d8:	00a48493          	addi	s1,s1,10 # 1c0002de <__rt_udma_call_enqueue_callback_resume>
  jr  x12
1c0002dc:	8602                	jr	a2

1c0002de <__rt_udma_call_enqueue_callback_resume>:

__rt_udma_call_enqueue_callback_resume:
  lw  x12, RT_PERIPH_CHANNEL_T_BASE(x9)
1c0002de:	44d0                	lw	a2,12(s1)
  sw  x10, RT_PERIPH_CHANNEL_T_FIRST_TO_ENQUEUE(x9)
1c0002e0:	c488                	sw	a0,8(s1)
  lw  x10, RT_PERIPH_COPY_T_ADDR(x11)
1c0002e2:	4188                	lw	a0,0(a1)
  lw  x9, RT_PERIPH_COPY_T_SIZE(x11)
1c0002e4:	41c4                	lw	s1,4(a1)
  sw  x10, UDMA_CHANNEL_SADDR_OFFSET(x12)
1c0002e6:	c208                	sw	a0,0(a2)
  sw  x9, UDMA_CHANNEL_SIZE_OFFSET(x12)
1c0002e8:	c244                	sw	s1,4(a2)

  lw  x9, RT_PERIPH_COPY_T_CTRL(x11)
1c0002ea:	45c4                	lw	s1,12(a1)
  andi x9, x9, (1<<RT_PERIPH_COPY_CTRL_TYPE_WIDTH)-1
1c0002ec:	88bd                	andi	s1,s1,15
  li  x10, RT_PERIPH_COPY_SPECIAL_ENQUEUE_THRESHOLD
1c0002ee:	4515                	li	a0,5
  blt x9, x10, transfer_resume
1c0002f0:	00a4ca63          	blt	s1,a0,1c000304 <transfer_resume>
  li          x10, RT_PERIPH_COPY_HYPER
  beq         x9, x10, hyper
  li          x10, RT_PERIPH_COPY_FC_TCDM
  beq         x9, x10, fc_tcdm
#else
  p.beqimm      x9, RT_PERIPH_COPY_HYPER, hyper
1c0002f4:	0064a463          	p.beqimm	s1,6,1c0002fc <dual>
  p.beqimm      x9, RT_PERIPH_COPY_FC_TCDM, fc_tcdm
1c0002f8:	0074a263          	p.beqimm	s1,7,1c0002fc <dual>

1c0002fc <dual>:
#ifdef RV_ISA_RV32
  li    x10, ~(1<<UDMA_CHANNEL_SIZE_LOG2)
  and   x9, x12, x10
  lw    x10, RT_PERIPH_COPY_T_HYPER_ADDR(x11)
#else
  lw    x10, RT_PERIPH_COPY_T_HYPER_ADDR(x11)
1c0002fc:	51c8                	lw	a0,36(a1)
  p.bclr  x9, x12, 0, UDMA_CHANNEL_SIZE_LOG2
1c0002fe:	c04634b3          	p.bclr	s1,a2,0,4
#endif
  sw    x10, HYPER_EXT_ADDR_CHANNEL_CUSTOM_OFFSET(x9)
1c000302:	d088                	sw	a0,32(s1)

1c000304 <transfer_resume>:
#endif

transfer_resume:
  lw  x10, RT_PERIPH_COPY_T_CFG(x11)
1c000304:	4588                	lw	a0,8(a1)
  sw  x10, UDMA_CHANNEL_CFG_OFFSET(x12)
1c000306:	c608                	sw	a0,8(a2)

1c000308 <checkTask>:

checkTask:

  // Check if we have a DMA transfer from L2 to L1   
  //lw          x10, RT_PERIPH_COPY_T_DMACMD(x8)           // Not null if we must transfer
  lw          x11, RT_PERIPH_COPY_T_EVENT(x8)             // Read this in advance to fill the slot, it is used later on in case there is no DMA command
1c000308:	4c0c                	lw	a1,24(s0)

  //bne         x10, zero, dmaCmd
  la          x9, udma_event_handler_end
1c00030a:	00000497          	auipc	s1,0x0
1c00030e:	19a48493          	addi	s1,s1,410 # 1c0004a4 <udma_event_handler_end>
  bne         x11, zero, __rt_event_enqueue
1c000312:	00058463          	beqz	a1,1c00031a <checkTask+0x12>
1c000316:	df9ff06f          	j	1c00010e <__rt_event_enqueue>

  // Loop again in case there are still events in the FIFO
  j udma_event_handler_end
1c00031a:	18a0006f          	j	1c0004a4 <udma_event_handler_end>

1c00031e <dmaCmd>:
//   x12 : number of bytes to repeat
repeat_transfer:

#ifdef ARCHI_UDMA_HAS_HYPER

  lw      x11, RT_PERIPH_CHANNEL_T_BASE(x9)
1c00031e:	44cc                	lw	a1,12(s1)
#ifdef RV_ISA_RV32
  li      x10, ~(1<<UDMA_CHANNEL_SIZE_LOG2)
  and     x9, x11, x10
  lw      x10, RT_PERIPH_COPY_T_HYPER_ADDR(x8)
#else
  lw      x10, RT_PERIPH_COPY_T_HYPER_ADDR(x8)
1c000320:	5048                	lw	a0,36(s0)
  p.bclr  x9, x11, 0, UDMA_CHANNEL_SIZE_LOG2
1c000322:	c045b4b3          	p.bclr	s1,a1,0,4
#endif
  add     x10, x10, x12
1c000326:	9532                	add	a0,a0,a2
  sw      x10, HYPER_EXT_ADDR_CHANNEL_CUSTOM_OFFSET(x9)
1c000328:	d088                	sw	a0,32(s1)
  sw      x10, RT_PERIPH_COPY_T_HYPER_ADDR(x8)
1c00032a:	d048                	sw	a0,36(s0)

  lw      x10, RT_PERIPH_COPY_T_ADDR(x8)
1c00032c:	4008                	lw	a0,0(s0)
  lw      x9, RT_PERIPH_COPY_T_REPEAT_SIZE(x8)
1c00032e:	5004                	lw	s1,32(s0)
  add     x10, x10, x12
1c000330:	9532                	add	a0,a0,a2
  sub     x9, x9, x12
1c000332:	8c91                	sub	s1,s1,a2
  blt     x12, x9, not_last
1c000334:	00964963          	blt	a2,s1,1c000346 <not_last>
  mv      x12, x9
1c000338:	8626                	mv	a2,s1
  sw      x0, RT_PERIPH_COPY_T_REPEAT(x8)
1c00033a:	00042e23          	sw	zero,28(s0)
  beq     x12, x0, udma_event_handler_end
1c00033e:	00061463          	bnez	a2,1c000346 <not_last>
1c000342:	1620006f          	j	1c0004a4 <udma_event_handler_end>

1c000346 <not_last>:

not_last:
  sw      x10, RT_PERIPH_COPY_T_ADDR(x8)
1c000346:	c008                	sw	a0,0(s0)
  sw      x9, RT_PERIPH_COPY_T_REPEAT_SIZE(x8)
1c000348:	d004                	sw	s1,32(s0)
  sw      x10, UDMA_CHANNEL_SADDR_OFFSET(x11)
1c00034a:	c188                	sw	a0,0(a1)
  sw      x12, UDMA_CHANNEL_SIZE_OFFSET(x11)
1c00034c:	c1d0                	sw	a2,4(a1)

  li      x10, UDMA_CHANNEL_CFG_EN
1c00034e:	4541                	li	a0,16
  sw      x10, UDMA_CHANNEL_CFG_OFFSET(x11)
1c000350:	c588                	sw	a0,8(a1)

#endif

  j           udma_event_handler_end
1c000352:	1520006f          	j	1c0004a4 <udma_event_handler_end>

1c000356 <__rt_udma_no_copy>:




__rt_udma_no_copy:
  la      x9, __rt_socevents_status
1c000356:	e4000497          	auipc	s1,0xe4000
1c00035a:	f5a48493          	addi	s1,s1,-166 # 2b0 <__rt_socevents_status>
  lw      x8, 0(x9)
1c00035e:	4080                	lw	s0,0(s1)
  li      x11, 1
1c000360:	4585                	li	a1,1
  sll     x10, x11, x10
1c000362:	00a59533          	sll	a0,a1,a0
  or      x8, x8, x10
1c000366:	8c49                	or	s0,s0,a0
  sw      x8, 0(x9)
1c000368:	c080                	sw	s0,0(s1)
  j udma_event_handler_end
1c00036a:	13a0006f          	j	1c0004a4 <udma_event_handler_end>

1c00036e <handle_special_end>:
  li          x12, RT_PERIPH_COPY_I2C_STEP1
  beq         x10, x12, i2c_step1
  li          x12, RT_PERIPH_COPY_I2C_STEP2
  beq         x10, x12, i2c_step2
#else
  p.beqimm    x10, RT_PERIPH_COPY_I2C_STEP1, i2c_step1  
1c00036e:	04352463          	p.beqimm	a0,3,1c0003b6 <i2c_step1>
  p.beqimm    x10, RT_PERIPH_COPY_I2C_STEP2, i2c_step2
1c000372:	06452063          	p.beqimm	a0,4,1c0003d2 <i2c_step2>
#endif

  j           resume_after_special_end
1c000376:	bf91                	j	1c0002ca <resume_after_special_end>

1c000378 <spim_step3>:


spim_step3:
  // The current copy was enqueued to configure spi, cs and send command
  // now we need to reenqueue the same copy with the user buffer.
  lw          x10, RT_PERIPH_COPY_T_RAW_VAL1(x8)
1c000378:	5408                	lw	a0,40(s0)
  sw          x10, RT_PERIPH_COPY_T_CTRL(x8)
1c00037a:	c448                	sw	a0,12(s0)

  // Reenqueue the same copy to the list of pending copies as it has been removed
  lw          x10, RT_PERIPH_CHANNEL_T_FIRST(x9)
1c00037c:	4088                	lw	a0,0(s1)
  sw          x10, RT_PERIPH_COPY_T_NEXT(x8)
1c00037e:	c848                	sw	a0,20(s0)
  sw          x8, RT_PERIPH_CHANNEL_T_FIRST(x9)
1c000380:	c080                	sw	s0,0(s1)

  // And rearm the transfer in the udma
  lw          x12, RT_PERIPH_CHANNEL_T_BASE(x9)
1c000382:	44d0                	lw	a2,12(s1)
  lw          x10, RT_PERIPH_COPY_T_RAW_VAL2(x8)
1c000384:	5448                	lw	a0,44(s0)
  sw          x10, UDMA_CHANNEL_SADDR_OFFSET(x12)
1c000386:	c208                	sw	a0,0(a2)
  lw          x10, RT_PERIPH_COPY_T_RAW_VAL0(x8)
1c000388:	5048                	lw	a0,36(s0)
  sw          x10, UDMA_CHANNEL_SIZE_OFFSET(x12)
1c00038a:	c248                	sw	a0,4(a2)
  lw          x10, RT_PERIPH_COPY_T_CFG(x8)
1c00038c:	4408                	lw	a0,8(s0)
  sw          x10, UDMA_CHANNEL_CFG_OFFSET(x12)
1c00038e:	c608                	sw	a0,8(a2)

  j           udma_event_handler_end
1c000390:	1140006f          	j	1c0004a4 <udma_event_handler_end>

1c000394 <spim_step2>:

spim_step2:
  // Now that the user data has been pushed, we must push an EOT command
  sw          x0, RT_PERIPH_COPY_T_CTRL(x8)
1c000394:	00042623          	sw	zero,12(s0)
  
  // Reenqueue the same copy to the list of pending copies as it has been removed
  lw          x10, RT_PERIPH_CHANNEL_T_FIRST(x9)
1c000398:	4088                	lw	a0,0(s1)
  sw          x10, RT_PERIPH_COPY_T_NEXT(x8)
1c00039a:	c848                	sw	a0,20(s0)
  sw          x8, RT_PERIPH_CHANNEL_T_FIRST(x9)
1c00039c:	c080                	sw	s0,0(s1)

  // And rearm the transfer in the udma
  #if PULP_CHIP_FAMILY == CHIP_GAP

  lw          x8, RT_PERIPH_COPY_T_PERIPH_DATA(x8)
1c00039e:	4060                	lw	s0,68(s0)
  li          x12, SPI_CMD_EOT(0)
1c0003a0:	90000637          	lui	a2,0x90000
  sw          x12, 0(x8)
1c0003a4:	c010                	sw	a2,0(s0)
  lw          x12, RT_PERIPH_CHANNEL_T_BASE(x9)
1c0003a6:	44d0                	lw	a2,12(s1)
  sw          x8, UDMA_CHANNEL_SADDR_OFFSET(x12)
1c0003a8:	c200                	sw	s0,0(a2)
  addi        x10, x8, RT_PERIPH_COPY_T_PERIPH_DATA
  sw          x10, UDMA_CHANNEL_SADDR_OFFSET(x12)

  #endif

  li          x10, 4
1c0003aa:	4511                	li	a0,4
  sw          x10, UDMA_CHANNEL_SIZE_OFFSET(x12)
1c0003ac:	c248                	sw	a0,4(a2)
  li          x10, UDMA_CHANNEL_CFG_EN
1c0003ae:	4541                	li	a0,16
  sw          x10, UDMA_CHANNEL_CFG_OFFSET(x12)
1c0003b0:	c608                	sw	a0,8(a2)

  j           udma_event_handler_end
1c0003b2:	0f20006f          	j	1c0004a4 <udma_event_handler_end>

1c0003b6 <i2c_step1>:
 */

i2c_step1:
  // The current copy was enqueued to configure i2c, cs and send command
  // now we need to reenqueue the same copy with the user buffer.
  lw          x10, RT_PERIPH_COPY_T_RAW_VAL1(x8)
1c0003b6:	5408                	lw	a0,40(s0)
  sw          x10, RT_PERIPH_COPY_T_CTRL(x8)
1c0003b8:	c448                	sw	a0,12(s0)

  // Reenqueue the same copy to the list of pending copies as it has been removed
  lw          x10, RT_PERIPH_CHANNEL_T_FIRST(x9)
1c0003ba:	4088                	lw	a0,0(s1)
  sw          x10, RT_PERIPH_COPY_T_NEXT(x8)
1c0003bc:	c848                	sw	a0,20(s0)
  sw          x8, RT_PERIPH_CHANNEL_T_FIRST(x9)
1c0003be:	c080                	sw	s0,0(s1)

  // And rearm the transfer in the udma
  lw          x12, RT_PERIPH_CHANNEL_T_BASE(x9)
1c0003c0:	44d0                	lw	a2,12(s1)
  lw          x10, RT_PERIPH_COPY_T_ADDR(x8)
1c0003c2:	4008                	lw	a0,0(s0)
  sw          x10, UDMA_CHANNEL_SADDR_OFFSET(x12)
1c0003c4:	c208                	sw	a0,0(a2)
  lw          x10, RT_PERIPH_COPY_T_RAW_VAL0(x8)
1c0003c6:	5048                	lw	a0,36(s0)
  sw          x10, UDMA_CHANNEL_SIZE_OFFSET(x12)
1c0003c8:	c248                	sw	a0,4(a2)
  lw          x10, RT_PERIPH_COPY_T_CFG(x8)
1c0003ca:	4408                	lw	a0,8(s0)
  sw          x10, UDMA_CHANNEL_CFG_OFFSET(x12)
1c0003cc:	c608                	sw	a0,8(a2)

  j           udma_event_handler_end
1c0003ce:	0d60006f          	j	1c0004a4 <udma_event_handler_end>

1c0003d2 <i2c_step2>:

i2c_step2:
  // Now that the user data has been pushed, we must push a STOP command
  sw          x0, RT_PERIPH_COPY_T_CTRL(x8)
1c0003d2:	00042623          	sw	zero,12(s0)
  
  // Reenqueue the same copy to the list of pending copies as it has been removed
  lw          x10, RT_PERIPH_CHANNEL_T_FIRST(x9)
1c0003d6:	4088                	lw	a0,0(s1)
  sw          x10, RT_PERIPH_COPY_T_NEXT(x8)
1c0003d8:	c848                	sw	a0,20(s0)
  sw          x8, RT_PERIPH_CHANNEL_T_FIRST(x9)
1c0003da:	c080                	sw	s0,0(s1)

  // And rearm the transfer in the udma
  #if PULP_CHIP_FAMILY == CHIP_GAP

  lw          x8, RT_PERIPH_COPY_T_PERIPH_DATA(x8)
1c0003dc:	4060                	lw	s0,68(s0)
  li          x12, I2C_CMD_STOP
1c0003de:	02000613          	li	a2,32
  sw          x12, 0(x8)
1c0003e2:	c010                	sw	a2,0(s0)
  lw          x12, RT_PERIPH_CHANNEL_T_BASE(x9)
1c0003e4:	44d0                	lw	a2,12(s1)
  sw          x8, UDMA_CHANNEL_SADDR_OFFSET(x12)
1c0003e6:	c200                	sw	s0,0(a2)
  addi        x10, x8, RT_PERIPH_COPY_T_PERIPH_DATA
  sw          x10, UDMA_CHANNEL_SADDR_OFFSET(x12)

  #endif

  li          x10, 1
1c0003e8:	4505                	li	a0,1
  sw          x10, UDMA_CHANNEL_SIZE_OFFSET(x12)
1c0003ea:	c248                	sw	a0,4(a2)
  li          x10, UDMA_CHANNEL_CFG_EN
1c0003ec:	4541                	li	a0,16
  sw          x10, UDMA_CHANNEL_CFG_OFFSET(x12)
1c0003ee:	c608                	sw	a0,8(a2)

  j           udma_event_handler_end
1c0003f0:	0b40006f          	j	1c0004a4 <udma_event_handler_end>

1c0003f4 <__rt_fc_socevents_handler>:

  .global __rt_fc_socevents_handler
  .extern pwm_event_handler
__rt_fc_socevents_handler:
// The stack is first adjusted to have stack-based load/store compressed
  add sp, sp, -128
1c0003f4:	7119                	addi	sp,sp,-128
  sw  x8, 0(sp)
1c0003f6:	c022                	sw	s0,0(sp)
  sw  x9, 4(sp)
1c0003f8:	c226                	sw	s1,4(sp)
  sw  x10, 8(sp)
1c0003fa:	c42a                	sw	a0,8(sp)
  sw  x11, 12(sp)
1c0003fc:	c62e                	sw	a1,12(sp)
  sw  x12, 16(sp)
1c0003fe:	c832                	sw	a2,16(sp)


  // Pop one element from the FIFO
  li  x8, ARCHI_EU_ADDR + EU_SOC_EVENTS_AREA_OFFSET + EU_SOC_EVENTS_CURRENT_EVENT
1c000400:	00201437          	lui	s0,0x201
1c000404:	f0040413          	addi	s0,s0,-256 # 200f00 <__L2+0x180f00>
  lw  x8, 0(x8)
1c000408:	4000                	lw	s0,0(s0)

  // Now that we popped the element, we can clear the soc event FIFO event as the FIFO is generating
  // an event as soon as the FIFO is not empty
  li  x9, 1<<PULP_SOC_EVENTS_EVENT
1c00040a:	080004b7          	lui	s1,0x8000
  li  x10, ARCHI_EU_DEMUX_ADDR + EU_CORE_BUFFER_CLEAR
1c00040e:	00204537          	lui	a0,0x204
1c000412:	02850513          	addi	a0,a0,40 # 204028 <__L2+0x184028>
  sw  x9, 0(x10)
1c000416:	c104                	sw	s1,0(a0)
  // Due to a HW bug in the core on Gap, we have to load this value early
#ifdef CONFIG_NO_FC_TINY
  la    x12, __rt_hyper_udma_handle
  lw    x12, 0(x12)
#else
  lw    x12, %tiny(__rt_hyper_udma_handle)(x0)
1c000418:	30802603          	lw	a2,776(zero) # 308 <__rt_hyper_udma_handle>
#endif
#endif

  // Extract ID part
  p.extractu x10, x8, EU_SOC_EVENTS_EVENT_MASK_BITS-1, EU_SOC_EVENTS_EVENT_MASK_OFFSET
1c00041c:	ce041533          	p.extractu	a0,s0,7,0

#ifdef ARCHI_UDMA_HAS_HYPER
  p.bneimm x10, UDMA_EVENT_ID(ARCHI_UDMA_HYPER_ID(0)), __rt_fc_socevents_not_hyper_rx
1c000420:	00653363          	p.bneimm	a0,6,1c000426 <__rt_fc_socevents_not_hyper_rx>
  jr x12
1c000424:	8602                	jr	a2

1c000426 <__rt_fc_socevents_not_hyper_rx>:

__rt_fc_socevents_not_hyper_rx:
  p.bneimm x10, UDMA_EVENT_ID(ARCHI_UDMA_HYPER_ID(0))+1, __rt_fc_socevents_not_hyper_tx
1c000426:	00753363          	p.bneimm	a0,7,1c00042c <__rt_fc_socevents_not_hyper_tx>
  jr x12
1c00042a:	8602                	jr	a2

1c00042c <__rt_fc_socevents_not_hyper_tx>:
#endif

__rt_fc_socevents_not_hyper_tx:

  // UDMA CHANNEL EVENTS
  li x9, ARCHI_SOC_EVENT_UDMA_NB_EVT
1c00042c:	44cd                	li	s1,19
  bge x10, x9, __rt_soc_evt_no_udma_channel
1c00042e:	00955c63          	ble	s1,a0,1c000446 <__rt_soc_evt_no_udma_channel>
  andi   x8, x10, 1
  srli   x10, x10, 1
  or     x10, x10, x8
#endif

  la     x8, periph_channels
1c000432:	e4000417          	auipc	s0,0xe4000
1c000436:	bfe40413          	addi	s0,s0,-1026 # 30 <periph_channels>
  slli   x9, x10, RT_PERIPH_CHANNEL_T_SIZEOF_LOG2
1c00043a:	00551493          	slli	s1,a0,0x5
  add    x9, x9, x8
1c00043e:	94a2                	add	s1,s1,s0

  lw   x11, RT_PERIPH_CHANNEL_T_CALLBACK(x9)
1c000440:	4ccc                	lw	a1,28(s1)
  lw   x8, RT_PERIPH_CHANNEL_T_FIRST(x9)
1c000442:	4080                	lw	s0,0(s1)

  jr   x11
1c000444:	8582                	jr	a1

1c000446 <__rt_soc_evt_no_udma_channel>:


__rt_soc_evt_no_udma_channel:

  li x9, ARCHI_SOC_EVENT_UDMA_FIRST_EXTRA_EVT + ARCHI_SOC_EVENT_UDMA_NB_EXTRA_EVT
1c000446:	44f9                	li	s1,30
  bge x10, x9, __rt_soc_evt_no_udma
1c000448:	00955b63          	ble	s1,a0,1c00045e <__rt_soc_evt_no_udma>

  addi x8, x10, -ARCHI_SOC_EVENT_UDMA_FIRST_EXTRA_EVT
1c00044c:	fec50413          	addi	s0,a0,-20
  slli x11, x8, 2
1c000450:	00241593          	slli	a1,s0,0x2
  la   x12, __rt_udma_extra_callback
  p.lw x12, x12(x11)
  la   x9, __rt_udma_extra_callback_arg
  p.lw x11, x9(x11)
#else
  lw   x12, %tiny(__rt_udma_extra_callback)(x11)
1c000454:	2b85a603          	lw	a2,696(a1)
  lw   x11, %tiny(__rt_udma_extra_callback_arg)(x11)
1c000458:	2e05a583          	lw	a1,736(a1)
#endif

  jr   x12
1c00045c:	8602                	jr	a2

1c00045e <__rt_soc_evt_no_udma>:

  .global __rt_soc_evt_no_udma
__rt_soc_evt_no_udma:
#ifdef RT_CONFIG_GPIO_ENABLED
  // GPIO EVENT
  li      x9, ARCHI_SOC_EVENT_GPIO
1c00045e:	02a00493          	li	s1,42
  beq     x10, x9, __rt_gpio_handler
1c000462:	00951463          	bne	a0,s1,1c00046a <__rt_soc_evt_no_udma+0xc>
1c000466:	0860006f          	j	1c0004ec <__rt_gpio_handler>
#endif

  li      x9, ARCHI_SOC_EVENT_RTC_IRQ
1c00046a:	02c00493          	li	s1,44
  beq     x9, x10, rtc_event_handler
1c00046e:	04a48363          	beq	s1,a0,1c0004b4 <rtc_event_handler>

1c000472 <__rt_soc_evt_pwm>:


// pwm event handler
//x9 : nb of event that will be used by handler
__rt_soc_evt_pwm:
  li x11, ARCHI_SOC_EVENT_ADV_TIMER_NB_EVT-1 // 3
1c000472:	458d                	li	a1,3
  addi x9, x11, ARCHI_SOC_EVENT_ADV_TIMER_FIRST_EVT //3+38=41
1c000474:	02658493          	addi	s1,a1,38
  sub x9, x9, x10 // 41 - 56
1c000478:	8c89                	sub	s1,s1,a0
  bgt x9, x11, __rt_soc_evt_store // if > 3 not for pwm
1c00047a:	0095c663          	blt	a1,s1,1c000486 <__rt_soc_evt_store>
  blt x9, x0,  __rt_soc_evt_store // if > 3 not for pwm
1c00047e:	0004c463          	bltz	s1,1c000486 <__rt_soc_evt_store>
  j pwm_event_handler
1c000482:	0460006f          	j	1c0004c8 <pwm_event_handler>

1c000486 <__rt_soc_evt_store>:


__rt_soc_evt_store:
  // If the event is not handled, store it in the soc event status mask
  la      x9, __rt_socevents_status
1c000486:	e4000497          	auipc	s1,0xe4000
1c00048a:	e2a48493          	addi	s1,s1,-470 # 2b0 <__rt_socevents_status>
  li      x11, 32
1c00048e:	02000593          	li	a1,32
  blt     x10, x11, socevents_set
1c000492:	00b54463          	blt	a0,a1,1c00049a <socevents_set>
  addi    x9, x9, 4
1c000496:	0491                	addi	s1,s1,4
  addi    x10, x10, -32
1c000498:	1501                	addi	a0,a0,-32

1c00049a <socevents_set>:

socevents_set:
  lw      x11, 0(x9)
1c00049a:	408c                	lw	a1,0(s1)
  p.bsetr x12, x11, x10
1c00049c:	80a5c633          	p.bsetr	a2,a1,a0
  sw      x12, 0(x9)
1c0004a0:	c090                	sw	a2,0(s1)
  j       udma_event_handler_end
1c0004a2:	a009                	j	1c0004a4 <udma_event_handler_end>

1c0004a4 <udma_event_handler_end>:

  .global udma_event_handler_end
udma_event_handler_end:
  lw  x8, 0(sp)
1c0004a4:	4402                	lw	s0,0(sp)
  lw  x9, 4(sp)
1c0004a6:	4492                	lw	s1,4(sp)
  lw  x10, 8(sp)
1c0004a8:	4522                	lw	a0,8(sp)
  lw  x11, 12(sp)
1c0004aa:	45b2                	lw	a1,12(sp)
  lw  x12, 16(sp)
1c0004ac:	4642                	lw	a2,16(sp)
  add sp, sp, 128
1c0004ae:	6109                	addi	sp,sp,128
  mret
1c0004b0:	30200073          	mret

1c0004b4 <rtc_event_handler>:


rtc_event_handler:
  lw    x11, __rtc_handler
1c0004b4:	e4000597          	auipc	a1,0xe4000
1c0004b8:	edc5a583          	lw	a1,-292(a1) # 390 <__rtc_handler>
  la    x9, udma_event_handler_end
1c0004bc:	00000497          	auipc	s1,0x0
1c0004c0:	fe848493          	addi	s1,s1,-24 # 1c0004a4 <udma_event_handler_end>
  j   __rt_event_enqueue
1c0004c4:	c4bff06f          	j	1c00010e <__rt_event_enqueue>

1c0004c8 <pwm_event_handler>:
#include "archi/eu/eu_v3.h"

  .global pwm_event_handler
  .extern pwmEventsStatus
pwm_event_handler:
  la   x10, pwmEventsStatus
1c0004c8:	e4000517          	auipc	a0,0xe4000
1c0004cc:	e8c50513          	addi	a0,a0,-372 # 354 <pwmEventsStatus>
  addi  x11, x0, 1
1c0004d0:	00100593          	li	a1,1
  lw   x8, 0(x10)
1c0004d4:	4100                	lw	s0,0(a0)
  p.insertr x8, x11, x9
1c0004d6:	8095a433          	p.insertr	s0,a1,s1
  sw   x8, 0(x10)
1c0004da:	c100                	sw	s0,0(a0)

  // continue with sw event raising
  li   x9, ARCHI_EU_DEMUX_ADDR + EU_SW_EVENTS_DEMUX_OFFSET + EU_CORE_TRIGG_SW_EVENT + (PLP_RT_NOTIF_EVENT << 2)
1c0004dc:	002044b7          	lui	s1,0x204
1c0004e0:	10c48493          	addi	s1,s1,268 # 20410c <__L2+0x18410c>
  li   x10, -1
1c0004e4:	557d                	li	a0,-1
  sw   x10, 0(x9)
1c0004e6:	c088                	sw	a0,0(s1)

  j udma_event_handler_end
1c0004e8:	fbdff06f          	j	1c0004a4 <udma_event_handler_end>

1c0004ec <__rt_gpio_handler>:
  bnez     x8, __rt_gpio_ff1_loop
#endif

#else
  .extern __pi_gpio_handler
  mv        x11, x8
1c0004ec:	85a2                	mv	a1,s0
  la        x12, __pi_gpio_handler
1c0004ee:	00003617          	auipc	a2,0x3
1c0004f2:	d0860613          	addi	a2,a2,-760 # 1c0031f6 <__pi_gpio_handler>
  la        x9, __rt_gpio_handler_end
1c0004f6:	00000497          	auipc	s1,0x0
1c0004fa:	00c48493          	addi	s1,s1,12 # 1c000502 <__rt_gpio_handler_end>
  j         __rt_call_external_c_function
1c0004fe:	d03ff06f          	j	1c000200 <__rt_call_external_c_function>

1c000502 <__rt_gpio_handler_end>:

  mret

#else

  j udma_event_handler_end
1c000502:	fa3ff06f          	j	1c0004a4 <udma_event_handler_end>

1c000506 <__udivdi3>:
1c000506:	87b2                	mv	a5,a2
1c000508:	8736                	mv	a4,a3
1c00050a:	88aa                	mv	a7,a0
1c00050c:	882e                	mv	a6,a1
1c00050e:	1e069d63          	bnez	a3,1c000708 <__udivdi3+0x202>
1c000512:	1c005337          	lui	t1,0x1c005
1c000516:	c0c30313          	addi	t1,t1,-1012 # 1c004c0c <__clz_tab>
1c00051a:	0ac5fd63          	bleu	a2,a1,1c0005d4 <__udivdi3+0xce>
1c00051e:	6741                	lui	a4,0x10
1c000520:	0ae67363          	bleu	a4,a2,1c0005c6 <__udivdi3+0xc0>
1c000524:	0ff00693          	li	a3,255
1c000528:	00c6b6b3          	sltu	a3,a3,a2
1c00052c:	068e                	slli	a3,a3,0x3
1c00052e:	00d65733          	srl	a4,a2,a3
1c000532:	933a                	add	t1,t1,a4
1c000534:	00034703          	lbu	a4,0(t1)
1c000538:	02000313          	li	t1,32
1c00053c:	96ba                	add	a3,a3,a4
1c00053e:	40d30333          	sub	t1,t1,a3
1c000542:	00030c63          	beqz	t1,1c00055a <__udivdi3+0x54>
1c000546:	00659733          	sll	a4,a1,t1
1c00054a:	00d556b3          	srl	a3,a0,a3
1c00054e:	006617b3          	sll	a5,a2,t1
1c000552:	00e6e833          	or	a6,a3,a4
1c000556:	006518b3          	sll	a7,a0,t1
1c00055a:	0107d513          	srli	a0,a5,0x10
1c00055e:	02a85733          	divu	a4,a6,a0
1c000562:	1007d5b3          	p.exthz	a1,a5
1c000566:	0108d693          	srli	a3,a7,0x10
1c00056a:	02a87633          	remu	a2,a6,a0
1c00056e:	02e58833          	mul	a6,a1,a4
1c000572:	0642                	slli	a2,a2,0x10
1c000574:	8ed1                	or	a3,a3,a2
1c000576:	863a                	mv	a2,a4
1c000578:	0106fc63          	bleu	a6,a3,1c000590 <__udivdi3+0x8a>
1c00057c:	96be                	add	a3,a3,a5
1c00057e:	fff70613          	addi	a2,a4,-1 # ffff <__l1_heap_size+0x1f>
1c000582:	00f6e763          	bltu	a3,a5,1c000590 <__udivdi3+0x8a>
1c000586:	0106f563          	bleu	a6,a3,1c000590 <__udivdi3+0x8a>
1c00058a:	ffe70613          	addi	a2,a4,-2
1c00058e:	96be                	add	a3,a3,a5
1c000590:	410686b3          	sub	a3,a3,a6
1c000594:	02a6f833          	remu	a6,a3,a0
1c000598:	02a6d6b3          	divu	a3,a3,a0
1c00059c:	df0828b3          	p.insert	a7,a6,15,16
1c0005a0:	02d58733          	mul	a4,a1,a3
1c0005a4:	8536                	mv	a0,a3
1c0005a6:	00e8fb63          	bleu	a4,a7,1c0005bc <__udivdi3+0xb6>
1c0005aa:	98be                	add	a7,a7,a5
1c0005ac:	fff68513          	addi	a0,a3,-1
1c0005b0:	00f8e663          	bltu	a7,a5,1c0005bc <__udivdi3+0xb6>
1c0005b4:	00e8f463          	bleu	a4,a7,1c0005bc <__udivdi3+0xb6>
1c0005b8:	ffe68513          	addi	a0,a3,-2
1c0005bc:	01061793          	slli	a5,a2,0x10
1c0005c0:	8fc9                	or	a5,a5,a0
1c0005c2:	4801                	li	a6,0
1c0005c4:	a06d                	j	1c00066e <__udivdi3+0x168>
1c0005c6:	01000737          	lui	a4,0x1000
1c0005ca:	46c1                	li	a3,16
1c0005cc:	f6e661e3          	bltu	a2,a4,1c00052e <__udivdi3+0x28>
1c0005d0:	46e1                	li	a3,24
1c0005d2:	bfb1                	j	1c00052e <__udivdi3+0x28>
1c0005d4:	e601                	bnez	a2,1c0005dc <__udivdi3+0xd6>
1c0005d6:	4685                	li	a3,1
1c0005d8:	02c6d7b3          	divu	a5,a3,a2
1c0005dc:	66c1                	lui	a3,0x10
1c0005de:	08d7fb63          	bleu	a3,a5,1c000674 <__udivdi3+0x16e>
1c0005e2:	0ff00693          	li	a3,255
1c0005e6:	00f6f363          	bleu	a5,a3,1c0005ec <__udivdi3+0xe6>
1c0005ea:	4721                	li	a4,8
1c0005ec:	00e7d6b3          	srl	a3,a5,a4
1c0005f0:	9336                	add	t1,t1,a3
1c0005f2:	00034683          	lbu	a3,0(t1)
1c0005f6:	02000613          	li	a2,32
1c0005fa:	96ba                	add	a3,a3,a4
1c0005fc:	8e15                	sub	a2,a2,a3
1c0005fe:	e251                	bnez	a2,1c000682 <__udivdi3+0x17c>
1c000600:	40f58733          	sub	a4,a1,a5
1c000604:	4805                	li	a6,1
1c000606:	0107d513          	srli	a0,a5,0x10
1c00060a:	1007d5b3          	p.exthz	a1,a5
1c00060e:	0108d693          	srli	a3,a7,0x10
1c000612:	02a77633          	remu	a2,a4,a0
1c000616:	02a75733          	divu	a4,a4,a0
1c00061a:	0642                	slli	a2,a2,0x10
1c00061c:	8ed1                	or	a3,a3,a2
1c00061e:	02e58333          	mul	t1,a1,a4
1c000622:	863a                	mv	a2,a4
1c000624:	0066fc63          	bleu	t1,a3,1c00063c <__udivdi3+0x136>
1c000628:	96be                	add	a3,a3,a5
1c00062a:	fff70613          	addi	a2,a4,-1 # ffffff <__L2+0xf7ffff>
1c00062e:	00f6e763          	bltu	a3,a5,1c00063c <__udivdi3+0x136>
1c000632:	0066f563          	bleu	t1,a3,1c00063c <__udivdi3+0x136>
1c000636:	ffe70613          	addi	a2,a4,-2
1c00063a:	96be                	add	a3,a3,a5
1c00063c:	406686b3          	sub	a3,a3,t1
1c000640:	02a6f333          	remu	t1,a3,a0
1c000644:	02a6d6b3          	divu	a3,a3,a0
1c000648:	df0328b3          	p.insert	a7,t1,15,16
1c00064c:	02d58733          	mul	a4,a1,a3
1c000650:	8536                	mv	a0,a3
1c000652:	00e8fb63          	bleu	a4,a7,1c000668 <__udivdi3+0x162>
1c000656:	98be                	add	a7,a7,a5
1c000658:	fff68513          	addi	a0,a3,-1 # ffff <__l1_heap_size+0x1f>
1c00065c:	00f8e663          	bltu	a7,a5,1c000668 <__udivdi3+0x162>
1c000660:	00e8f463          	bleu	a4,a7,1c000668 <__udivdi3+0x162>
1c000664:	ffe68513          	addi	a0,a3,-2
1c000668:	01061793          	slli	a5,a2,0x10
1c00066c:	8fc9                	or	a5,a5,a0
1c00066e:	853e                	mv	a0,a5
1c000670:	85c2                	mv	a1,a6
1c000672:	8082                	ret
1c000674:	010006b7          	lui	a3,0x1000
1c000678:	4741                	li	a4,16
1c00067a:	f6d7e9e3          	bltu	a5,a3,1c0005ec <__udivdi3+0xe6>
1c00067e:	4761                	li	a4,24
1c000680:	b7b5                	j	1c0005ec <__udivdi3+0xe6>
1c000682:	00c797b3          	sll	a5,a5,a2
1c000686:	00d5d333          	srl	t1,a1,a3
1c00068a:	0107de13          	srli	t3,a5,0x10
1c00068e:	00c59733          	sll	a4,a1,a2
1c000692:	00c518b3          	sll	a7,a0,a2
1c000696:	00d555b3          	srl	a1,a0,a3
1c00069a:	03c35533          	divu	a0,t1,t3
1c00069e:	8dd9                	or	a1,a1,a4
1c0006a0:	1007d733          	p.exthz	a4,a5
1c0006a4:	0105d693          	srli	a3,a1,0x10
1c0006a8:	03c37633          	remu	a2,t1,t3
1c0006ac:	882a                	mv	a6,a0
1c0006ae:	02a70333          	mul	t1,a4,a0
1c0006b2:	0642                	slli	a2,a2,0x10
1c0006b4:	8ed1                	or	a3,a3,a2
1c0006b6:	0066fc63          	bleu	t1,a3,1c0006ce <__udivdi3+0x1c8>
1c0006ba:	96be                	add	a3,a3,a5
1c0006bc:	fff50813          	addi	a6,a0,-1
1c0006c0:	00f6e763          	bltu	a3,a5,1c0006ce <__udivdi3+0x1c8>
1c0006c4:	0066f563          	bleu	t1,a3,1c0006ce <__udivdi3+0x1c8>
1c0006c8:	ffe50813          	addi	a6,a0,-2
1c0006cc:	96be                	add	a3,a3,a5
1c0006ce:	406686b3          	sub	a3,a3,t1
1c0006d2:	03c6f633          	remu	a2,a3,t3
1c0006d6:	03c6d6b3          	divu	a3,a3,t3
1c0006da:	df0625b3          	p.insert	a1,a2,15,16
1c0006de:	02d70733          	mul	a4,a4,a3
1c0006e2:	8636                	mv	a2,a3
1c0006e4:	00e5fc63          	bleu	a4,a1,1c0006fc <__udivdi3+0x1f6>
1c0006e8:	95be                	add	a1,a1,a5
1c0006ea:	fff68613          	addi	a2,a3,-1 # ffffff <__L2+0xf7ffff>
1c0006ee:	00f5e763          	bltu	a1,a5,1c0006fc <__udivdi3+0x1f6>
1c0006f2:	00e5f563          	bleu	a4,a1,1c0006fc <__udivdi3+0x1f6>
1c0006f6:	ffe68613          	addi	a2,a3,-2
1c0006fa:	95be                	add	a1,a1,a5
1c0006fc:	0842                	slli	a6,a6,0x10
1c0006fe:	40e58733          	sub	a4,a1,a4
1c000702:	00c86833          	or	a6,a6,a2
1c000706:	b701                	j	1c000606 <__udivdi3+0x100>
1c000708:	12d5ea63          	bltu	a1,a3,1c00083c <__udivdi3+0x336>
1c00070c:	67c1                	lui	a5,0x10
1c00070e:	02f6fd63          	bleu	a5,a3,1c000748 <__udivdi3+0x242>
1c000712:	0ff00793          	li	a5,255
1c000716:	00d7b8b3          	sltu	a7,a5,a3
1c00071a:	088e                	slli	a7,a7,0x3
1c00071c:	1c005737          	lui	a4,0x1c005
1c000720:	0116d7b3          	srl	a5,a3,a7
1c000724:	c0c70713          	addi	a4,a4,-1012 # 1c004c0c <__clz_tab>
1c000728:	97ba                	add	a5,a5,a4
1c00072a:	0007c783          	lbu	a5,0(a5) # 10000 <__L1Cl>
1c00072e:	02000813          	li	a6,32
1c000732:	97c6                	add	a5,a5,a7
1c000734:	40f80833          	sub	a6,a6,a5
1c000738:	00081f63          	bnez	a6,1c000756 <__udivdi3+0x250>
1c00073c:	4785                	li	a5,1
1c00073e:	f2b6e8e3          	bltu	a3,a1,1c00066e <__udivdi3+0x168>
1c000742:	04a637b3          	p.sletu	a5,a2,a0
1c000746:	b725                	j	1c00066e <__udivdi3+0x168>
1c000748:	010007b7          	lui	a5,0x1000
1c00074c:	48c1                	li	a7,16
1c00074e:	fcf6e7e3          	bltu	a3,a5,1c00071c <__udivdi3+0x216>
1c000752:	48e1                	li	a7,24
1c000754:	b7e1                	j	1c00071c <__udivdi3+0x216>
1c000756:	00f658b3          	srl	a7,a2,a5
1c00075a:	010696b3          	sll	a3,a3,a6
1c00075e:	00d8e6b3          	or	a3,a7,a3
1c000762:	00f5d333          	srl	t1,a1,a5
1c000766:	0106de13          	srli	t3,a3,0x10
1c00076a:	00f55733          	srl	a4,a0,a5
1c00076e:	03c377b3          	remu	a5,t1,t3
1c000772:	1006d8b3          	p.exthz	a7,a3
1c000776:	010595b3          	sll	a1,a1,a6
1c00077a:	8f4d                	or	a4,a4,a1
1c00077c:	01075593          	srli	a1,a4,0x10
1c000780:	01061633          	sll	a2,a2,a6
1c000784:	03c35333          	divu	t1,t1,t3
1c000788:	07c2                	slli	a5,a5,0x10
1c00078a:	8ddd                	or	a1,a1,a5
1c00078c:	02688eb3          	mul	t4,a7,t1
1c000790:	879a                	mv	a5,t1
1c000792:	01d5fc63          	bleu	t4,a1,1c0007aa <__udivdi3+0x2a4>
1c000796:	95b6                	add	a1,a1,a3
1c000798:	fff30793          	addi	a5,t1,-1
1c00079c:	00d5e763          	bltu	a1,a3,1c0007aa <__udivdi3+0x2a4>
1c0007a0:	01d5f563          	bleu	t4,a1,1c0007aa <__udivdi3+0x2a4>
1c0007a4:	ffe30793          	addi	a5,t1,-2
1c0007a8:	95b6                	add	a1,a1,a3
1c0007aa:	41d585b3          	sub	a1,a1,t4
1c0007ae:	03c5f333          	remu	t1,a1,t3
1c0007b2:	03c5d5b3          	divu	a1,a1,t3
1c0007b6:	df032733          	p.insert	a4,t1,15,16
1c0007ba:	02b888b3          	mul	a7,a7,a1
1c0007be:	832e                	mv	t1,a1
1c0007c0:	01177c63          	bleu	a7,a4,1c0007d8 <__udivdi3+0x2d2>
1c0007c4:	9736                	add	a4,a4,a3
1c0007c6:	fff58313          	addi	t1,a1,-1
1c0007ca:	00d76763          	bltu	a4,a3,1c0007d8 <__udivdi3+0x2d2>
1c0007ce:	01177563          	bleu	a7,a4,1c0007d8 <__udivdi3+0x2d2>
1c0007d2:	ffe58313          	addi	t1,a1,-2
1c0007d6:	9736                	add	a4,a4,a3
1c0007d8:	07c2                	slli	a5,a5,0x10
1c0007da:	6e41                	lui	t3,0x10
1c0007dc:	0067e7b3          	or	a5,a5,t1
1c0007e0:	fffe0593          	addi	a1,t3,-1 # ffff <__l1_heap_size+0x1f>
1c0007e4:	00b7f6b3          	and	a3,a5,a1
1c0007e8:	41170733          	sub	a4,a4,a7
1c0007ec:	8df1                	and	a1,a1,a2
1c0007ee:	0107d893          	srli	a7,a5,0x10
1c0007f2:	02b68333          	mul	t1,a3,a1
1c0007f6:	8241                	srli	a2,a2,0x10
1c0007f8:	02b885b3          	mul	a1,a7,a1
1c0007fc:	8eae                	mv	t4,a1
1c0007fe:	42c68eb3          	p.mac	t4,a3,a2
1c000802:	01035693          	srli	a3,t1,0x10
1c000806:	96f6                	add	a3,a3,t4
1c000808:	02c888b3          	mul	a7,a7,a2
1c00080c:	00b6f363          	bleu	a1,a3,1c000812 <__udivdi3+0x30c>
1c000810:	98f2                	add	a7,a7,t3
1c000812:	0106d613          	srli	a2,a3,0x10
1c000816:	98b2                	add	a7,a7,a2
1c000818:	03176063          	bltu	a4,a7,1c000838 <__udivdi3+0x332>
1c00081c:	db1713e3          	bne	a4,a7,1c0005c2 <__udivdi3+0xbc>
1c000820:	6741                	lui	a4,0x10
1c000822:	177d                	addi	a4,a4,-1
1c000824:	8ef9                	and	a3,a3,a4
1c000826:	06c2                	slli	a3,a3,0x10
1c000828:	00e37333          	and	t1,t1,a4
1c00082c:	01051533          	sll	a0,a0,a6
1c000830:	969a                	add	a3,a3,t1
1c000832:	4801                	li	a6,0
1c000834:	e2d57de3          	bleu	a3,a0,1c00066e <__udivdi3+0x168>
1c000838:	17fd                	addi	a5,a5,-1
1c00083a:	b361                	j	1c0005c2 <__udivdi3+0xbc>
1c00083c:	4801                	li	a6,0
1c00083e:	4781                	li	a5,0
1c000840:	b53d                	j	1c00066e <__udivdi3+0x168>

1c000842 <__umoddi3>:
1c000842:	88b2                	mv	a7,a2
1c000844:	8736                	mv	a4,a3
1c000846:	87aa                	mv	a5,a0
1c000848:	882e                	mv	a6,a1
1c00084a:	1a069963          	bnez	a3,1c0009fc <__umoddi3+0x1ba>
1c00084e:	1c0056b7          	lui	a3,0x1c005
1c000852:	c0c68693          	addi	a3,a3,-1012 # 1c004c0c <__clz_tab>
1c000856:	0ac5f463          	bleu	a2,a1,1c0008fe <__umoddi3+0xbc>
1c00085a:	6341                	lui	t1,0x10
1c00085c:	08667a63          	bleu	t1,a2,1c0008f0 <__umoddi3+0xae>
1c000860:	0ff00313          	li	t1,255
1c000864:	00c37363          	bleu	a2,t1,1c00086a <__umoddi3+0x28>
1c000868:	4721                	li	a4,8
1c00086a:	00e65333          	srl	t1,a2,a4
1c00086e:	969a                	add	a3,a3,t1
1c000870:	0006c683          	lbu	a3,0(a3)
1c000874:	02000313          	li	t1,32
1c000878:	9736                	add	a4,a4,a3
1c00087a:	40e30333          	sub	t1,t1,a4
1c00087e:	00030c63          	beqz	t1,1c000896 <__umoddi3+0x54>
1c000882:	006595b3          	sll	a1,a1,t1
1c000886:	00e55733          	srl	a4,a0,a4
1c00088a:	006618b3          	sll	a7,a2,t1
1c00088e:	00b76833          	or	a6,a4,a1
1c000892:	006517b3          	sll	a5,a0,t1
1c000896:	0108d613          	srli	a2,a7,0x10
1c00089a:	02c87733          	remu	a4,a6,a2
1c00089e:	1008d533          	p.exthz	a0,a7
1c0008a2:	0107d693          	srli	a3,a5,0x10
1c0008a6:	02c85833          	divu	a6,a6,a2
1c0008aa:	0742                	slli	a4,a4,0x10
1c0008ac:	8ed9                	or	a3,a3,a4
1c0008ae:	03050833          	mul	a6,a0,a6
1c0008b2:	0106f863          	bleu	a6,a3,1c0008c2 <__umoddi3+0x80>
1c0008b6:	96c6                	add	a3,a3,a7
1c0008b8:	0116e563          	bltu	a3,a7,1c0008c2 <__umoddi3+0x80>
1c0008bc:	0106f363          	bleu	a6,a3,1c0008c2 <__umoddi3+0x80>
1c0008c0:	96c6                	add	a3,a3,a7
1c0008c2:	410686b3          	sub	a3,a3,a6
1c0008c6:	02c6f733          	remu	a4,a3,a2
1c0008ca:	02c6d6b3          	divu	a3,a3,a2
1c0008ce:	df0727b3          	p.insert	a5,a4,15,16
1c0008d2:	02d506b3          	mul	a3,a0,a3
1c0008d6:	00d7f863          	bleu	a3,a5,1c0008e6 <__umoddi3+0xa4>
1c0008da:	97c6                	add	a5,a5,a7
1c0008dc:	0117e563          	bltu	a5,a7,1c0008e6 <__umoddi3+0xa4>
1c0008e0:	00d7f363          	bleu	a3,a5,1c0008e6 <__umoddi3+0xa4>
1c0008e4:	97c6                	add	a5,a5,a7
1c0008e6:	8f95                	sub	a5,a5,a3
1c0008e8:	0067d533          	srl	a0,a5,t1
1c0008ec:	4581                	li	a1,0
1c0008ee:	8082                	ret
1c0008f0:	01000337          	lui	t1,0x1000
1c0008f4:	4741                	li	a4,16
1c0008f6:	f6666ae3          	bltu	a2,t1,1c00086a <__umoddi3+0x28>
1c0008fa:	4761                	li	a4,24
1c0008fc:	b7bd                	j	1c00086a <__umoddi3+0x28>
1c0008fe:	e601                	bnez	a2,1c000906 <__umoddi3+0xc4>
1c000900:	4605                	li	a2,1
1c000902:	031658b3          	divu	a7,a2,a7
1c000906:	6641                	lui	a2,0x10
1c000908:	06c8ff63          	bleu	a2,a7,1c000986 <__umoddi3+0x144>
1c00090c:	0ff00613          	li	a2,255
1c000910:	01167363          	bleu	a7,a2,1c000916 <__umoddi3+0xd4>
1c000914:	4721                	li	a4,8
1c000916:	00e8d633          	srl	a2,a7,a4
1c00091a:	96b2                	add	a3,a3,a2
1c00091c:	0006c603          	lbu	a2,0(a3)
1c000920:	02000313          	li	t1,32
1c000924:	963a                	add	a2,a2,a4
1c000926:	40c30333          	sub	t1,t1,a2
1c00092a:	06031563          	bnez	t1,1c000994 <__umoddi3+0x152>
1c00092e:	411585b3          	sub	a1,a1,a7
1c000932:	0108d713          	srli	a4,a7,0x10
1c000936:	1008d533          	p.exthz	a0,a7
1c00093a:	0107d613          	srli	a2,a5,0x10
1c00093e:	02e5f6b3          	remu	a3,a1,a4
1c000942:	02e5d5b3          	divu	a1,a1,a4
1c000946:	06c2                	slli	a3,a3,0x10
1c000948:	8ed1                	or	a3,a3,a2
1c00094a:	02b505b3          	mul	a1,a0,a1
1c00094e:	00b6f863          	bleu	a1,a3,1c00095e <__umoddi3+0x11c>
1c000952:	96c6                	add	a3,a3,a7
1c000954:	0116e563          	bltu	a3,a7,1c00095e <__umoddi3+0x11c>
1c000958:	00b6f363          	bleu	a1,a3,1c00095e <__umoddi3+0x11c>
1c00095c:	96c6                	add	a3,a3,a7
1c00095e:	40b685b3          	sub	a1,a3,a1
1c000962:	02e5f6b3          	remu	a3,a1,a4
1c000966:	02e5d5b3          	divu	a1,a1,a4
1c00096a:	df06a7b3          	p.insert	a5,a3,15,16
1c00096e:	02b505b3          	mul	a1,a0,a1
1c000972:	00b7f863          	bleu	a1,a5,1c000982 <__umoddi3+0x140>
1c000976:	97c6                	add	a5,a5,a7
1c000978:	0117e563          	bltu	a5,a7,1c000982 <__umoddi3+0x140>
1c00097c:	00b7f363          	bleu	a1,a5,1c000982 <__umoddi3+0x140>
1c000980:	97c6                	add	a5,a5,a7
1c000982:	8f8d                	sub	a5,a5,a1
1c000984:	b795                	j	1c0008e8 <__umoddi3+0xa6>
1c000986:	01000637          	lui	a2,0x1000
1c00098a:	4741                	li	a4,16
1c00098c:	f8c8e5e3          	bltu	a7,a2,1c000916 <__umoddi3+0xd4>
1c000990:	4761                	li	a4,24
1c000992:	b751                	j	1c000916 <__umoddi3+0xd4>
1c000994:	006898b3          	sll	a7,a7,t1
1c000998:	00c5d733          	srl	a4,a1,a2
1c00099c:	006517b3          	sll	a5,a0,t1
1c0009a0:	00c55633          	srl	a2,a0,a2
1c0009a4:	006595b3          	sll	a1,a1,t1
1c0009a8:	0108d513          	srli	a0,a7,0x10
1c0009ac:	8dd1                	or	a1,a1,a2
1c0009ae:	02a77633          	remu	a2,a4,a0
1c0009b2:	1008d833          	p.exthz	a6,a7
1c0009b6:	0105d693          	srli	a3,a1,0x10
1c0009ba:	02a75733          	divu	a4,a4,a0
1c0009be:	0642                	slli	a2,a2,0x10
1c0009c0:	8ed1                	or	a3,a3,a2
1c0009c2:	02e80733          	mul	a4,a6,a4
1c0009c6:	00e6f863          	bleu	a4,a3,1c0009d6 <__umoddi3+0x194>
1c0009ca:	96c6                	add	a3,a3,a7
1c0009cc:	0116e563          	bltu	a3,a7,1c0009d6 <__umoddi3+0x194>
1c0009d0:	00e6f363          	bleu	a4,a3,1c0009d6 <__umoddi3+0x194>
1c0009d4:	96c6                	add	a3,a3,a7
1c0009d6:	8e99                	sub	a3,a3,a4
1c0009d8:	02a6f733          	remu	a4,a3,a0
1c0009dc:	02a6d6b3          	divu	a3,a3,a0
1c0009e0:	df0725b3          	p.insert	a1,a4,15,16
1c0009e4:	02d806b3          	mul	a3,a6,a3
1c0009e8:	00d5f863          	bleu	a3,a1,1c0009f8 <__umoddi3+0x1b6>
1c0009ec:	95c6                	add	a1,a1,a7
1c0009ee:	0115e563          	bltu	a1,a7,1c0009f8 <__umoddi3+0x1b6>
1c0009f2:	00d5f363          	bleu	a3,a1,1c0009f8 <__umoddi3+0x1b6>
1c0009f6:	95c6                	add	a1,a1,a7
1c0009f8:	8d95                	sub	a1,a1,a3
1c0009fa:	bf25                	j	1c000932 <__umoddi3+0xf0>
1c0009fc:	eed5e9e3          	bltu	a1,a3,1c0008ee <__umoddi3+0xac>
1c000a00:	6741                	lui	a4,0x10
1c000a02:	04e6f563          	bleu	a4,a3,1c000a4c <__umoddi3+0x20a>
1c000a06:	0ff00e93          	li	t4,255
1c000a0a:	00deb733          	sltu	a4,t4,a3
1c000a0e:	070e                	slli	a4,a4,0x3
1c000a10:	1c005337          	lui	t1,0x1c005
1c000a14:	00e6d8b3          	srl	a7,a3,a4
1c000a18:	c0c30313          	addi	t1,t1,-1012 # 1c004c0c <__clz_tab>
1c000a1c:	989a                	add	a7,a7,t1
1c000a1e:	0008ce83          	lbu	t4,0(a7)
1c000a22:	02000e13          	li	t3,32
1c000a26:	9eba                	add	t4,t4,a4
1c000a28:	41de0e33          	sub	t3,t3,t4
1c000a2c:	020e1763          	bnez	t3,1c000a5a <__umoddi3+0x218>
1c000a30:	00b6e463          	bltu	a3,a1,1c000a38 <__umoddi3+0x1f6>
1c000a34:	00c56963          	bltu	a0,a2,1c000a46 <__umoddi3+0x204>
1c000a38:	40c507b3          	sub	a5,a0,a2
1c000a3c:	8d95                	sub	a1,a1,a3
1c000a3e:	00f53533          	sltu	a0,a0,a5
1c000a42:	40a58833          	sub	a6,a1,a0
1c000a46:	853e                	mv	a0,a5
1c000a48:	85c2                	mv	a1,a6
1c000a4a:	b555                	j	1c0008ee <__umoddi3+0xac>
1c000a4c:	010008b7          	lui	a7,0x1000
1c000a50:	4741                	li	a4,16
1c000a52:	fb16efe3          	bltu	a3,a7,1c000a10 <__umoddi3+0x1ce>
1c000a56:	4761                	li	a4,24
1c000a58:	bf65                	j	1c000a10 <__umoddi3+0x1ce>
1c000a5a:	01d65733          	srl	a4,a2,t4
1c000a5e:	01c696b3          	sll	a3,a3,t3
1c000a62:	8ed9                	or	a3,a3,a4
1c000a64:	01d5d7b3          	srl	a5,a1,t4
1c000a68:	0106d813          	srli	a6,a3,0x10
1c000a6c:	0307f333          	remu	t1,a5,a6
1c000a70:	1006d733          	p.exthz	a4,a3
1c000a74:	01d558b3          	srl	a7,a0,t4
1c000a78:	01c595b3          	sll	a1,a1,t3
1c000a7c:	00b8e5b3          	or	a1,a7,a1
1c000a80:	0105d893          	srli	a7,a1,0x10
1c000a84:	01c61633          	sll	a2,a2,t3
1c000a88:	01c51533          	sll	a0,a0,t3
1c000a8c:	0307d7b3          	divu	a5,a5,a6
1c000a90:	0342                	slli	t1,t1,0x10
1c000a92:	011368b3          	or	a7,t1,a7
1c000a96:	02f70f33          	mul	t5,a4,a5
1c000a9a:	833e                	mv	t1,a5
1c000a9c:	01e8fc63          	bleu	t5,a7,1c000ab4 <__umoddi3+0x272>
1c000aa0:	98b6                	add	a7,a7,a3
1c000aa2:	fff78313          	addi	t1,a5,-1 # ffffff <__L2+0xf7ffff>
1c000aa6:	00d8e763          	bltu	a7,a3,1c000ab4 <__umoddi3+0x272>
1c000aaa:	01e8f563          	bleu	t5,a7,1c000ab4 <__umoddi3+0x272>
1c000aae:	ffe78313          	addi	t1,a5,-2
1c000ab2:	98b6                	add	a7,a7,a3
1c000ab4:	41e888b3          	sub	a7,a7,t5
1c000ab8:	0308f7b3          	remu	a5,a7,a6
1c000abc:	0308d8b3          	divu	a7,a7,a6
1c000ac0:	df07a5b3          	p.insert	a1,a5,15,16
1c000ac4:	03170733          	mul	a4,a4,a7
1c000ac8:	87c6                	mv	a5,a7
1c000aca:	00e5fc63          	bleu	a4,a1,1c000ae2 <__umoddi3+0x2a0>
1c000ace:	95b6                	add	a1,a1,a3
1c000ad0:	fff88793          	addi	a5,a7,-1 # ffffff <__L2+0xf7ffff>
1c000ad4:	00d5e763          	bltu	a1,a3,1c000ae2 <__umoddi3+0x2a0>
1c000ad8:	00e5f563          	bleu	a4,a1,1c000ae2 <__umoddi3+0x2a0>
1c000adc:	ffe88793          	addi	a5,a7,-2
1c000ae0:	95b6                	add	a1,a1,a3
1c000ae2:	0342                	slli	t1,t1,0x10
1c000ae4:	6f41                	lui	t5,0x10
1c000ae6:	00f36333          	or	t1,t1,a5
1c000aea:	ffff0793          	addi	a5,t5,-1 # ffff <__l1_heap_size+0x1f>
1c000aee:	00f37833          	and	a6,t1,a5
1c000af2:	01035313          	srli	t1,t1,0x10
1c000af6:	8ff1                	and	a5,a5,a2
1c000af8:	02f808b3          	mul	a7,a6,a5
1c000afc:	8d99                	sub	a1,a1,a4
1c000afe:	01065713          	srli	a4,a2,0x10
1c000b02:	02f307b3          	mul	a5,t1,a5
1c000b06:	8fbe                	mv	t6,a5
1c000b08:	42e80fb3          	p.mac	t6,a6,a4
1c000b0c:	0108d813          	srli	a6,a7,0x10
1c000b10:	987e                	add	a6,a6,t6
1c000b12:	02e30333          	mul	t1,t1,a4
1c000b16:	00f87363          	bleu	a5,a6,1c000b1c <__umoddi3+0x2da>
1c000b1a:	937a                	add	t1,t1,t5
1c000b1c:	01085713          	srli	a4,a6,0x10
1c000b20:	933a                	add	t1,t1,a4
1c000b22:	6741                	lui	a4,0x10
1c000b24:	177d                	addi	a4,a4,-1
1c000b26:	00e87833          	and	a6,a6,a4
1c000b2a:	0842                	slli	a6,a6,0x10
1c000b2c:	00e8f733          	and	a4,a7,a4
1c000b30:	9742                	add	a4,a4,a6
1c000b32:	0065e663          	bltu	a1,t1,1c000b3e <__umoddi3+0x2fc>
1c000b36:	00659d63          	bne	a1,t1,1c000b50 <__umoddi3+0x30e>
1c000b3a:	00e57b63          	bleu	a4,a0,1c000b50 <__umoddi3+0x30e>
1c000b3e:	40c70633          	sub	a2,a4,a2
1c000b42:	00c73733          	sltu	a4,a4,a2
1c000b46:	40d30333          	sub	t1,t1,a3
1c000b4a:	40e30333          	sub	t1,t1,a4
1c000b4e:	8732                	mv	a4,a2
1c000b50:	40e50733          	sub	a4,a0,a4
1c000b54:	00e53533          	sltu	a0,a0,a4
1c000b58:	406585b3          	sub	a1,a1,t1
1c000b5c:	8d89                	sub	a1,a1,a0
1c000b5e:	01d597b3          	sll	a5,a1,t4
1c000b62:	01c75733          	srl	a4,a4,t3
1c000b66:	00e7e533          	or	a0,a5,a4
1c000b6a:	01c5d5b3          	srl	a1,a1,t3
1c000b6e:	b341                	j	1c0008ee <__umoddi3+0xac>

1c000b70 <pi_cluster_task>:
1c000b70:	1101                	addi	sp,sp,-32
1c000b72:	ce22                	sw	s0,28(sp)
1c000b74:	1000                	addi	s0,sp,32
1c000b76:	fea42623          	sw	a0,-20(s0)
1c000b7a:	feb42423          	sw	a1,-24(s0)
1c000b7e:	fec42223          	sw	a2,-28(s0)
1c000b82:	fec42783          	lw	a5,-20(s0)
1c000b86:	fe842703          	lw	a4,-24(s0)
1c000b8a:	c398                	sw	a4,0(a5)
1c000b8c:	fec42783          	lw	a5,-20(s0)
1c000b90:	fe442703          	lw	a4,-28(s0)
1c000b94:	c3d8                	sw	a4,4(a5)
1c000b96:	fec42783          	lw	a5,-20(s0)
1c000b9a:	0007a423          	sw	zero,8(a5)
1c000b9e:	fec42783          	lw	a5,-20(s0)
1c000ba2:	0007a623          	sw	zero,12(a5)
1c000ba6:	fec42783          	lw	a5,-20(s0)
1c000baa:	0007a823          	sw	zero,16(a5)
1c000bae:	fec42783          	lw	a5,-20(s0)
1c000bb2:	0007aa23          	sw	zero,20(a5)
1c000bb6:	fec42783          	lw	a5,-20(s0)
1c000bba:	853e                	mv	a0,a5
1c000bbc:	4472                	lw	s0,28(sp)
1c000bbe:	6105                	addi	sp,sp,32
1c000bc0:	8082                	ret

1c000bc2 <core_id>:
1c000bc2:	1101                	addi	sp,sp,-32
1c000bc4:	ce22                	sw	s0,28(sp)
1c000bc6:	1000                	addi	s0,sp,32
1c000bc8:	014027f3          	csrr	a5,uhartid
1c000bcc:	fef42623          	sw	a5,-20(s0)
1c000bd0:	fec42783          	lw	a5,-20(s0)
1c000bd4:	f457b7b3          	p.bclr	a5,a5,26,5
1c000bd8:	853e                	mv	a0,a5
1c000bda:	4472                	lw	s0,28(sp)
1c000bdc:	6105                	addi	sp,sp,32
1c000bde:	8082                	ret

1c000be0 <hal_core_id>:
1c000be0:	1141                	addi	sp,sp,-16
1c000be2:	c606                	sw	ra,12(sp)
1c000be4:	c422                	sw	s0,8(sp)
1c000be6:	0800                	addi	s0,sp,16
1c000be8:	3fe9                	jal	1c000bc2 <core_id>
1c000bea:	87aa                	mv	a5,a0
1c000bec:	853e                	mv	a0,a5
1c000bee:	40b2                	lw	ra,12(sp)
1c000bf0:	4422                	lw	s0,8(sp)
1c000bf2:	0141                	addi	sp,sp,16
1c000bf4:	8082                	ret

1c000bf6 <hal_irq_disable>:
1c000bf6:	1101                	addi	sp,sp,-32
1c000bf8:	ce22                	sw	s0,28(sp)
1c000bfa:	1000                	addi	s0,sp,32
1c000bfc:	300477f3          	csrrci	a5,mstatus,8
1c000c00:	fef42623          	sw	a5,-20(s0)
1c000c04:	fec42783          	lw	a5,-20(s0)
1c000c08:	fef42423          	sw	a5,-24(s0)
1c000c0c:	fe842783          	lw	a5,-24(s0)
1c000c10:	853e                	mv	a0,a5
1c000c12:	4472                	lw	s0,28(sp)
1c000c14:	6105                	addi	sp,sp,32
1c000c16:	8082                	ret

1c000c18 <hal_irq_restore>:
1c000c18:	1101                	addi	sp,sp,-32
1c000c1a:	ce22                	sw	s0,28(sp)
1c000c1c:	1000                	addi	s0,sp,32
1c000c1e:	fea42623          	sw	a0,-20(s0)
1c000c22:	fec42783          	lw	a5,-20(s0)
1c000c26:	30079073          	csrw	mstatus,a5
1c000c2a:	0001                	nop
1c000c2c:	4472                	lw	s0,28(sp)
1c000c2e:	6105                	addi	sp,sp,32
1c000c30:	8082                	ret

1c000c32 <eu_evt_maskSet>:
1c000c32:	1101                	addi	sp,sp,-32
1c000c34:	ce22                	sw	s0,28(sp)
1c000c36:	1000                	addi	s0,sp,32
1c000c38:	fea42623          	sw	a0,-20(s0)
1c000c3c:	fec42783          	lw	a5,-20(s0)
1c000c40:	00204737          	lui	a4,0x204
1c000c44:	00f72423          	sw	a5,8(a4) # 204008 <__L2+0x184008>
1c000c48:	0001                	nop
1c000c4a:	4472                	lw	s0,28(sp)
1c000c4c:	6105                	addi	sp,sp,32
1c000c4e:	8082                	ret

1c000c50 <eu_evt_maskClr>:
1c000c50:	1101                	addi	sp,sp,-32
1c000c52:	ce22                	sw	s0,28(sp)
1c000c54:	1000                	addi	s0,sp,32
1c000c56:	fea42623          	sw	a0,-20(s0)
1c000c5a:	fec42783          	lw	a5,-20(s0)
1c000c5e:	00204737          	lui	a4,0x204
1c000c62:	00f72223          	sw	a5,4(a4) # 204004 <__L2+0x184004>
1c000c66:	0001                	nop
1c000c68:	4472                	lw	s0,28(sp)
1c000c6a:	6105                	addi	sp,sp,32
1c000c6c:	8082                	ret

1c000c6e <eu_evt_waitAndClr>:
1c000c6e:	1101                	addi	sp,sp,-32
1c000c70:	ce22                	sw	s0,28(sp)
1c000c72:	1000                	addi	s0,sp,32
1c000c74:	00204737          	lui	a4,0x204
1c000c78:	03c76783          	p.elw	a5,60(a4) # 20403c <__L2+0x18403c>
1c000c7c:	fef42623          	sw	a5,-20(s0)
1c000c80:	fec42783          	lw	a5,-20(s0)
1c000c84:	853e                	mv	a0,a5
1c000c86:	4472                	lw	s0,28(sp)
1c000c88:	6105                	addi	sp,sp,32
1c000c8a:	8082                	ret

1c000c8c <eu_evt_maskWaitAndClr>:
1c000c8c:	7179                	addi	sp,sp,-48
1c000c8e:	d606                	sw	ra,44(sp)
1c000c90:	d422                	sw	s0,40(sp)
1c000c92:	1800                	addi	s0,sp,48
1c000c94:	fca42e23          	sw	a0,-36(s0)
1c000c98:	fdc42503          	lw	a0,-36(s0)
1c000c9c:	3f59                	jal	1c000c32 <eu_evt_maskSet>
1c000c9e:	3fc1                	jal	1c000c6e <eu_evt_waitAndClr>
1c000ca0:	fea42623          	sw	a0,-20(s0)
1c000ca4:	fdc42503          	lw	a0,-36(s0)
1c000ca8:	3765                	jal	1c000c50 <eu_evt_maskClr>
1c000caa:	fec42783          	lw	a5,-20(s0)
1c000cae:	853e                	mv	a0,a5
1c000cb0:	50b2                	lw	ra,44(sp)
1c000cb2:	5422                	lw	s0,40(sp)
1c000cb4:	6145                	addi	sp,sp,48
1c000cb6:	8082                	ret

1c000cb8 <eu_bar_addr>:
1c000cb8:	1101                	addi	sp,sp,-32
1c000cba:	ce22                	sw	s0,28(sp)
1c000cbc:	1000                	addi	s0,sp,32
1c000cbe:	fea42623          	sw	a0,-20(s0)
1c000cc2:	fec42703          	lw	a4,-20(s0)
1c000cc6:	67c1                	lui	a5,0x10
1c000cc8:	21078793          	addi	a5,a5,528 # 10210 <__L1Cl+0x210>
1c000ccc:	97ba                	add	a5,a5,a4
1c000cce:	0796                	slli	a5,a5,0x5
1c000cd0:	853e                	mv	a0,a5
1c000cd2:	4472                	lw	s0,28(sp)
1c000cd4:	6105                	addi	sp,sp,32
1c000cd6:	8082                	ret

1c000cd8 <eu_bar_trig_wait_clr>:
1c000cd8:	7179                	addi	sp,sp,-48
1c000cda:	d622                	sw	s0,44(sp)
1c000cdc:	1800                	addi	s0,sp,48
1c000cde:	fca42e23          	sw	a0,-36(s0)
1c000ce2:	fdc42703          	lw	a4,-36(s0)
1c000ce6:	01c76783          	p.elw	a5,28(a4)
1c000cea:	fef42623          	sw	a5,-20(s0)
1c000cee:	fec42783          	lw	a5,-20(s0)
1c000cf2:	853e                	mv	a0,a5
1c000cf4:	5432                	lw	s0,44(sp)
1c000cf6:	6145                	addi	sp,sp,48
1c000cf8:	8082                	ret

1c000cfa <eu_bar_setup_mask>:
1c000cfa:	1101                	addi	sp,sp,-32
1c000cfc:	ce22                	sw	s0,28(sp)
1c000cfe:	1000                	addi	s0,sp,32
1c000d00:	fea42623          	sw	a0,-20(s0)
1c000d04:	feb42423          	sw	a1,-24(s0)
1c000d08:	fec42223          	sw	a2,-28(s0)
1c000d0c:	fe842783          	lw	a5,-24(s0)
1c000d10:	fec42703          	lw	a4,-20(s0)
1c000d14:	00f72023          	sw	a5,0(a4)
1c000d18:	fe442783          	lw	a5,-28(s0)
1c000d1c:	fec42703          	lw	a4,-20(s0)
1c000d20:	00f72623          	sw	a5,12(a4)
1c000d24:	0001                	nop
1c000d26:	4472                	lw	s0,28(sp)
1c000d28:	6105                	addi	sp,sp,32
1c000d2a:	8082                	ret

1c000d2c <eu_bar_setup>:
1c000d2c:	1101                	addi	sp,sp,-32
1c000d2e:	ce06                	sw	ra,28(sp)
1c000d30:	cc22                	sw	s0,24(sp)
1c000d32:	1000                	addi	s0,sp,32
1c000d34:	fea42623          	sw	a0,-20(s0)
1c000d38:	feb42423          	sw	a1,-24(s0)
1c000d3c:	fe842603          	lw	a2,-24(s0)
1c000d40:	fe842583          	lw	a1,-24(s0)
1c000d44:	fec42503          	lw	a0,-20(s0)
1c000d48:	3f4d                	jal	1c000cfa <eu_bar_setup_mask>
1c000d4a:	0001                	nop
1c000d4c:	40f2                	lw	ra,28(sp)
1c000d4e:	4462                	lw	s0,24(sp)
1c000d50:	6105                	addi	sp,sp,32
1c000d52:	8082                	ret

1c000d54 <eu_mutex_unlock_from_id>:
1c000d54:	1101                	addi	sp,sp,-32
1c000d56:	ce22                	sw	s0,28(sp)
1c000d58:	1000                	addi	s0,sp,32
1c000d5a:	fea42623          	sw	a0,-20(s0)
1c000d5e:	fec42783          	lw	a5,-20(s0)
1c000d62:	078a                	slli	a5,a5,0x2
1c000d64:	0c078713          	addi	a4,a5,192
1c000d68:	002047b7          	lui	a5,0x204
1c000d6c:	0007e723          	p.sw	zero,a4(a5)
1c000d70:	0001                	nop
1c000d72:	4472                	lw	s0,28(sp)
1c000d74:	6105                	addi	sp,sp,32
1c000d76:	8082                	ret

1c000d78 <eu_dispatch_push>:
1c000d78:	1101                	addi	sp,sp,-32
1c000d7a:	ce22                	sw	s0,28(sp)
1c000d7c:	1000                	addi	s0,sp,32
1c000d7e:	fea42623          	sw	a0,-20(s0)
1c000d82:	fec42783          	lw	a5,-20(s0)
1c000d86:	00204737          	lui	a4,0x204
1c000d8a:	08f72023          	sw	a5,128(a4) # 204080 <__L2+0x184080>
1c000d8e:	0001                	nop
1c000d90:	4472                	lw	s0,28(sp)
1c000d92:	6105                	addi	sp,sp,32
1c000d94:	8082                	ret

1c000d96 <eu_dispatch_team_config>:
1c000d96:	1101                	addi	sp,sp,-32
1c000d98:	ce22                	sw	s0,28(sp)
1c000d9a:	1000                	addi	s0,sp,32
1c000d9c:	fea42623          	sw	a0,-20(s0)
1c000da0:	fec42783          	lw	a5,-20(s0)
1c000da4:	00204737          	lui	a4,0x204
1c000da8:	08f72223          	sw	a5,132(a4) # 204084 <__L2+0x184084>
1c000dac:	0001                	nop
1c000dae:	4472                	lw	s0,28(sp)
1c000db0:	6105                	addi	sp,sp,32
1c000db2:	8082                	ret

1c000db4 <plp_dma_counter_alloc>:
1c000db4:	1141                	addi	sp,sp,-16
1c000db6:	c622                	sw	s0,12(sp)
1c000db8:	0800                	addi	s0,sp,16
1c000dba:	002047b7          	lui	a5,0x204
1c000dbe:	4007a783          	lw	a5,1024(a5) # 204400 <__L2+0x184400>
1c000dc2:	853e                	mv	a0,a5
1c000dc4:	4432                	lw	s0,12(sp)
1c000dc6:	0141                	addi	sp,sp,16
1c000dc8:	8082                	ret

1c000dca <plp_dma_counter_free>:
1c000dca:	1101                	addi	sp,sp,-32
1c000dcc:	ce22                	sw	s0,28(sp)
1c000dce:	1000                	addi	s0,sp,32
1c000dd0:	fea42623          	sw	a0,-20(s0)
1c000dd4:	4705                	li	a4,1
1c000dd6:	fec42783          	lw	a5,-20(s0)
1c000dda:	00f717b3          	sll	a5,a4,a5
1c000dde:	00204737          	lui	a4,0x204
1c000de2:	40f72223          	sw	a5,1028(a4) # 204404 <__L2+0x184404>
1c000de6:	0001                	nop
1c000de8:	4472                	lw	s0,28(sp)
1c000dea:	6105                	addi	sp,sp,32
1c000dec:	8082                	ret

1c000dee <plp_dma_getCmd>:
1c000dee:	7139                	addi	sp,sp,-64
1c000df0:	de22                	sw	s0,60(sp)
1c000df2:	0080                	addi	s0,sp,64
1c000df4:	fca42e23          	sw	a0,-36(s0)
1c000df8:	fcb42c23          	sw	a1,-40(s0)
1c000dfc:	fcc42a23          	sw	a2,-44(s0)
1c000e00:	fcd42823          	sw	a3,-48(s0)
1c000e04:	fce42623          	sw	a4,-52(s0)
1c000e08:	fcf42423          	sw	a5,-56(s0)
1c000e0c:	4701                	li	a4,0
1c000e0e:	fdc42783          	lw	a5,-36(s0)
1c000e12:	86ba                	mv	a3,a4
1c000e14:	c107a6b3          	p.insert	a3,a5,0,16
1c000e18:	87b6                	mv	a5,a3
1c000e1a:	fef42623          	sw	a5,-20(s0)
1c000e1e:	fec42703          	lw	a4,-20(s0)
1c000e22:	4785                	li	a5,1
1c000e24:	86ba                	mv	a3,a4
1c000e26:	c117a6b3          	p.insert	a3,a5,0,17
1c000e2a:	87b6                	mv	a5,a3
1c000e2c:	fef42623          	sw	a5,-20(s0)
1c000e30:	fec42703          	lw	a4,-20(s0)
1c000e34:	fd442783          	lw	a5,-44(s0)
1c000e38:	86ba                	mv	a3,a4
1c000e3a:	c127a6b3          	p.insert	a3,a5,0,18
1c000e3e:	87b6                	mv	a5,a3
1c000e40:	fef42623          	sw	a5,-20(s0)
1c000e44:	fec42703          	lw	a4,-20(s0)
1c000e48:	fd842783          	lw	a5,-40(s0)
1c000e4c:	86ba                	mv	a3,a4
1c000e4e:	de07a6b3          	p.insert	a3,a5,15,0
1c000e52:	87b6                	mv	a5,a3
1c000e54:	fef42623          	sw	a5,-20(s0)
1c000e58:	fec42703          	lw	a4,-20(s0)
1c000e5c:	fd042783          	lw	a5,-48(s0)
1c000e60:	86ba                	mv	a3,a4
1c000e62:	c137a6b3          	p.insert	a3,a5,0,19
1c000e66:	87b6                	mv	a5,a3
1c000e68:	fef42623          	sw	a5,-20(s0)
1c000e6c:	fec42703          	lw	a4,-20(s0)
1c000e70:	fcc42783          	lw	a5,-52(s0)
1c000e74:	86ba                	mv	a3,a4
1c000e76:	c147a6b3          	p.insert	a3,a5,0,20
1c000e7a:	87b6                	mv	a5,a3
1c000e7c:	fef42623          	sw	a5,-20(s0)
1c000e80:	fec42703          	lw	a4,-20(s0)
1c000e84:	fc842783          	lw	a5,-56(s0)
1c000e88:	86ba                	mv	a3,a4
1c000e8a:	c157a6b3          	p.insert	a3,a5,0,21
1c000e8e:	87b6                	mv	a5,a3
1c000e90:	fef42623          	sw	a5,-20(s0)
1c000e94:	fec42783          	lw	a5,-20(s0)
1c000e98:	853e                	mv	a0,a5
1c000e9a:	5472                	lw	s0,60(sp)
1c000e9c:	6121                	addi	sp,sp,64
1c000e9e:	8082                	ret

1c000ea0 <plp_dma_cmd_push>:
1c000ea0:	1101                	addi	sp,sp,-32
1c000ea2:	ce22                	sw	s0,28(sp)
1c000ea4:	1000                	addi	s0,sp,32
1c000ea6:	fea42623          	sw	a0,-20(s0)
1c000eaa:	feb42423          	sw	a1,-24(s0)
1c000eae:	fec42223          	sw	a2,-28(s0)
1c000eb2:	fec42783          	lw	a5,-20(s0)
1c000eb6:	00204737          	lui	a4,0x204
1c000eba:	40f72023          	sw	a5,1024(a4) # 204400 <__L2+0x184400>
1c000ebe:	fe842783          	lw	a5,-24(s0)
1c000ec2:	00204737          	lui	a4,0x204
1c000ec6:	40f72023          	sw	a5,1024(a4) # 204400 <__L2+0x184400>
1c000eca:	fe442783          	lw	a5,-28(s0)
1c000ece:	00204737          	lui	a4,0x204
1c000ed2:	40f72023          	sw	a5,1024(a4) # 204400 <__L2+0x184400>
1c000ed6:	0001                	nop
1c000ed8:	4472                	lw	s0,28(sp)
1c000eda:	6105                	addi	sp,sp,32
1c000edc:	8082                	ret

1c000ede <rt_irq_disable>:
1c000ede:	1141                	addi	sp,sp,-16
1c000ee0:	c606                	sw	ra,12(sp)
1c000ee2:	c422                	sw	s0,8(sp)
1c000ee4:	0800                	addi	s0,sp,16
1c000ee6:	3b01                	jal	1c000bf6 <hal_irq_disable>
1c000ee8:	87aa                	mv	a5,a0
1c000eea:	853e                	mv	a0,a5
1c000eec:	40b2                	lw	ra,12(sp)
1c000eee:	4422                	lw	s0,8(sp)
1c000ef0:	0141                	addi	sp,sp,16
1c000ef2:	8082                	ret

1c000ef4 <rt_irq_restore>:
1c000ef4:	1101                	addi	sp,sp,-32
1c000ef6:	ce06                	sw	ra,28(sp)
1c000ef8:	cc22                	sw	s0,24(sp)
1c000efa:	1000                	addi	s0,sp,32
1c000efc:	fea42623          	sw	a0,-20(s0)
1c000f00:	fec42503          	lw	a0,-20(s0)
1c000f04:	3b11                	jal	1c000c18 <hal_irq_restore>
1c000f06:	0001                	nop
1c000f08:	40f2                	lw	ra,28(sp)
1c000f0a:	4462                	lw	s0,24(sp)
1c000f0c:	6105                	addi	sp,sp,32
1c000f0e:	8082                	ret

1c000f10 <pi_core_id>:
1c000f10:	1141                	addi	sp,sp,-16
1c000f12:	c606                	sw	ra,12(sp)
1c000f14:	c422                	sw	s0,8(sp)
1c000f16:	0800                	addi	s0,sp,16
1c000f18:	2925                	jal	1c001350 <rt_core_id>
1c000f1a:	87aa                	mv	a5,a0
1c000f1c:	853e                	mv	a0,a5
1c000f1e:	40b2                	lw	ra,12(sp)
1c000f20:	4422                	lw	s0,8(sp)
1c000f22:	0141                	addi	sp,sp,16
1c000f24:	8082                	ret

1c000f26 <pi_cl_cluster_nb_cores>:
1c000f26:	1141                	addi	sp,sp,-16
1c000f28:	c606                	sw	ra,12(sp)
1c000f2a:	c422                	sw	s0,8(sp)
1c000f2c:	0800                	addi	s0,sp,16
1c000f2e:	292d                	jal	1c001368 <rt_nb_pe>
1c000f30:	87aa                	mv	a5,a0
1c000f32:	853e                	mv	a0,a5
1c000f34:	40b2                	lw	ra,12(sp)
1c000f36:	4422                	lw	s0,8(sp)
1c000f38:	0141                	addi	sp,sp,16
1c000f3a:	8082                	ret

1c000f3c <__rt_team_barrier_config>:
1c000f3c:	1101                	addi	sp,sp,-32
1c000f3e:	ce06                	sw	ra,28(sp)
1c000f40:	cc22                	sw	s0,24(sp)
1c000f42:	1000                	addi	s0,sp,32
1c000f44:	fea42623          	sw	a0,-20(s0)
1c000f48:	4501                	li	a0,0
1c000f4a:	33bd                	jal	1c000cb8 <eu_bar_addr>
1c000f4c:	87aa                	mv	a5,a0
1c000f4e:	fec42583          	lw	a1,-20(s0)
1c000f52:	853e                	mv	a0,a5
1c000f54:	3be1                	jal	1c000d2c <eu_bar_setup>
1c000f56:	0001                	nop
1c000f58:	40f2                	lw	ra,28(sp)
1c000f5a:	4462                	lw	s0,24(sp)
1c000f5c:	6105                	addi	sp,sp,32
1c000f5e:	8082                	ret

1c000f60 <__rt_team_config>:
1c000f60:	7179                	addi	sp,sp,-48
1c000f62:	d606                	sw	ra,44(sp)
1c000f64:	d422                	sw	s0,40(sp)
1c000f66:	1800                	addi	s0,sp,48
1c000f68:	fca42e23          	sw	a0,-36(s0)
1c000f6c:	4705                	li	a4,1
1c000f6e:	fdc42783          	lw	a5,-36(s0)
1c000f72:	00f717b3          	sll	a5,a4,a5
1c000f76:	17fd                	addi	a5,a5,-1
1c000f78:	fef42623          	sw	a5,-20(s0)
1c000f7c:	fec42503          	lw	a0,-20(s0)
1c000f80:	3d19                	jal	1c000d96 <eu_dispatch_team_config>
1c000f82:	fec42503          	lw	a0,-20(s0)
1c000f86:	3f5d                	jal	1c000f3c <__rt_team_barrier_config>
1c000f88:	0001                	nop
1c000f8a:	50b2                	lw	ra,44(sp)
1c000f8c:	5422                	lw	s0,40(sp)
1c000f8e:	6145                	addi	sp,sp,48
1c000f90:	8082                	ret

1c000f92 <pi_cl_team_fork>:
1c000f92:	1101                	addi	sp,sp,-32
1c000f94:	ce06                	sw	ra,28(sp)
1c000f96:	cc22                	sw	s0,24(sp)
1c000f98:	1000                	addi	s0,sp,32
1c000f9a:	fea42623          	sw	a0,-20(s0)
1c000f9e:	feb42423          	sw	a1,-24(s0)
1c000fa2:	fec42223          	sw	a2,-28(s0)
1c000fa6:	fe442603          	lw	a2,-28(s0)
1c000faa:	fe842583          	lw	a1,-24(s0)
1c000fae:	fec42503          	lw	a0,-20(s0)
1c000fb2:	2815                	jal	1c000fe6 <rt_team_fork>
1c000fb4:	0001                	nop
1c000fb6:	40f2                	lw	ra,28(sp)
1c000fb8:	4462                	lw	s0,24(sp)
1c000fba:	6105                	addi	sp,sp,32
1c000fbc:	8082                	ret

1c000fbe <pi_cl_team_critical_enter>:
1c000fbe:	1141                	addi	sp,sp,-16
1c000fc0:	c606                	sw	ra,12(sp)
1c000fc2:	c422                	sw	s0,8(sp)
1c000fc4:	0800                	addi	s0,sp,16
1c000fc6:	2049                	jal	1c001048 <rt_team_critical_enter>
1c000fc8:	0001                	nop
1c000fca:	40b2                	lw	ra,12(sp)
1c000fcc:	4422                	lw	s0,8(sp)
1c000fce:	0141                	addi	sp,sp,16
1c000fd0:	8082                	ret

1c000fd2 <pi_cl_team_critical_exit>:
1c000fd2:	1141                	addi	sp,sp,-16
1c000fd4:	c606                	sw	ra,12(sp)
1c000fd6:	c422                	sw	s0,8(sp)
1c000fd8:	0800                	addi	s0,sp,16
1c000fda:	2079                	jal	1c001068 <rt_team_critical_exit>
1c000fdc:	0001                	nop
1c000fde:	40b2                	lw	ra,12(sp)
1c000fe0:	4422                	lw	s0,8(sp)
1c000fe2:	0141                	addi	sp,sp,16
1c000fe4:	8082                	ret

1c000fe6 <rt_team_fork>:
1c000fe6:	1101                	addi	sp,sp,-32
1c000fe8:	ce06                	sw	ra,28(sp)
1c000fea:	cc22                	sw	s0,24(sp)
1c000fec:	1000                	addi	s0,sp,32
1c000fee:	fea42623          	sw	a0,-20(s0)
1c000ff2:	feb42423          	sw	a1,-24(s0)
1c000ff6:	fec42223          	sw	a2,-28(s0)
1c000ffa:	fec42783          	lw	a5,-20(s0)
1c000ffe:	c781                	beqz	a5,1c001006 <rt_team_fork+0x20>
1c001000:	fec42503          	lw	a0,-20(s0)
1c001004:	3fb1                	jal	1c000f60 <__rt_team_config>
1c001006:	fe842783          	lw	a5,-24(s0)
1c00100a:	853e                	mv	a0,a5
1c00100c:	33b5                	jal	1c000d78 <eu_dispatch_push>
1c00100e:	fe442783          	lw	a5,-28(s0)
1c001012:	853e                	mv	a0,a5
1c001014:	3395                	jal	1c000d78 <eu_dispatch_push>
1c001016:	fe842783          	lw	a5,-24(s0)
1c00101a:	fe442503          	lw	a0,-28(s0)
1c00101e:	9782                	jalr	a5
1c001020:	2031                	jal	1c00102c <__rt_team_barrier>
1c001022:	0001                	nop
1c001024:	40f2                	lw	ra,28(sp)
1c001026:	4462                	lw	s0,24(sp)
1c001028:	6105                	addi	sp,sp,32
1c00102a:	8082                	ret

1c00102c <__rt_team_barrier>:
1c00102c:	1141                	addi	sp,sp,-16
1c00102e:	c606                	sw	ra,12(sp)
1c001030:	c422                	sw	s0,8(sp)
1c001032:	0800                	addi	s0,sp,16
1c001034:	4501                	li	a0,0
1c001036:	3149                	jal	1c000cb8 <eu_bar_addr>
1c001038:	87aa                	mv	a5,a0
1c00103a:	853e                	mv	a0,a5
1c00103c:	3971                	jal	1c000cd8 <eu_bar_trig_wait_clr>
1c00103e:	0001                	nop
1c001040:	40b2                	lw	ra,12(sp)
1c001042:	4422                	lw	s0,8(sp)
1c001044:	0141                	addi	sp,sp,16
1c001046:	8082                	ret

1c001048 <rt_team_critical_enter>:
1c001048:	1101                	addi	sp,sp,-32
1c00104a:	ce06                	sw	ra,28(sp)
1c00104c:	cc22                	sw	s0,24(sp)
1c00104e:	1000                	addi	s0,sp,32
1c001050:	2625                	jal	1c001378 <rt_compiler_barrier>
1c001052:	00204737          	lui	a4,0x204
1c001056:	0c076783          	p.elw	a5,192(a4) # 2040c0 <__L2+0x1840c0>
1c00105a:	fef42623          	sw	a5,-20(s0)
1c00105e:	0001                	nop
1c001060:	40f2                	lw	ra,28(sp)
1c001062:	4462                	lw	s0,24(sp)
1c001064:	6105                	addi	sp,sp,32
1c001066:	8082                	ret

1c001068 <rt_team_critical_exit>:
1c001068:	1141                	addi	sp,sp,-16
1c00106a:	c606                	sw	ra,12(sp)
1c00106c:	c422                	sw	s0,8(sp)
1c00106e:	0800                	addi	s0,sp,16
1c001070:	4501                	li	a0,0
1c001072:	31cd                	jal	1c000d54 <eu_mutex_unlock_from_id>
1c001074:	2611                	jal	1c001378 <rt_compiler_barrier>
1c001076:	0001                	nop
1c001078:	40b2                	lw	ra,12(sp)
1c00107a:	4422                	lw	s0,8(sp)
1c00107c:	0141                	addi	sp,sp,16
1c00107e:	8082                	ret

1c001080 <__cl_dma_copy>:
1c001080:	7139                	addi	sp,sp,-64
1c001082:	de06                	sw	ra,60(sp)
1c001084:	dc22                	sw	s0,56(sp)
1c001086:	0080                	addi	s0,sp,64
1c001088:	fca42e23          	sw	a0,-36(s0)
1c00108c:	fcb42c23          	sw	a1,-40(s0)
1c001090:	fcc42a23          	sw	a2,-44(s0)
1c001094:	fcd42823          	sw	a3,-48(s0)
1c001098:	fce42623          	sw	a4,-52(s0)
1c00109c:	fcf42423          	sw	a5,-56(s0)
1c0010a0:	87c2                	mv	a5,a6
1c0010a2:	fd142023          	sw	a7,-64(s0)
1c0010a6:	fcf403a3          	sb	a5,-57(s0)
1c0010aa:	57fd                	li	a5,-1
1c0010ac:	fef42623          	sw	a5,-20(s0)
1c0010b0:	fcc42703          	lw	a4,-52(s0)
1c0010b4:	fd442783          	lw	a5,-44(s0)
1c0010b8:	04f757b3          	p.minu	a5,a4,a5
1c0010bc:	fef42423          	sw	a5,-24(s0)
1c0010c0:	401c                	lw	a5,0(s0)
1c0010c2:	fd842703          	lw	a4,-40(s0)
1c0010c6:	cbd8                	sw	a4,20(a5)
1c0010c8:	401c                	lw	a5,0(s0)
1c0010ca:	fdc42703          	lw	a4,-36(s0)
1c0010ce:	cf98                	sw	a4,24(a5)
1c0010d0:	401c                	lw	a5,0(s0)
1c0010d2:	fd442703          	lw	a4,-44(s0)
1c0010d6:	c798                	sw	a4,8(a5)
1c0010d8:	401c                	lw	a5,0(s0)
1c0010da:	fd042703          	lw	a4,-48(s0)
1c0010de:	c7d8                	sw	a4,12(a5)
1c0010e0:	401c                	lw	a5,0(s0)
1c0010e2:	fcc42703          	lw	a4,-52(s0)
1c0010e6:	cb98                	sw	a4,16(a5)
1c0010e8:	401c                	lw	a5,0(s0)
1c0010ea:	fec42703          	lw	a4,-20(s0)
1c0010ee:	c398                	sw	a4,0(a5)
1c0010f0:	401c                	lw	a5,0(s0)
1c0010f2:	0007ae23          	sw	zero,28(a5)
1c0010f6:	01402783          	lw	a5,20(zero) # 14 <__rt_bridge_eeprom_handle>
1c0010fa:	c791                	beqz	a5,1c001106 <__cl_dma_copy+0x86>
1c0010fc:	01002783          	lw	a5,16(zero) # 10 <__rt_bridge_flash_cs>
1c001100:	4018                	lw	a4,0(s0)
1c001102:	cfd8                	sw	a4,28(a5)
1c001104:	a0b9                	j	1c001152 <__cl_dma_copy+0xd2>
1c001106:	401c                	lw	a5,0(s0)
1c001108:	4bd8                	lw	a4,20(a5)
1c00110a:	fe842783          	lw	a5,-24(s0)
1c00110e:	973e                	add	a4,a4,a5
1c001110:	401c                	lw	a5,0(s0)
1c001112:	cbd8                	sw	a4,20(a5)
1c001114:	401c                	lw	a5,0(s0)
1c001116:	4f98                	lw	a4,24(a5)
1c001118:	fd042783          	lw	a5,-48(s0)
1c00111c:	973e                	add	a4,a4,a5
1c00111e:	401c                	lw	a5,0(s0)
1c001120:	cf98                	sw	a4,24(a5)
1c001122:	401c                	lw	a5,0(s0)
1c001124:	4798                	lw	a4,8(a5)
1c001126:	fe842783          	lw	a5,-24(s0)
1c00112a:	8f1d                	sub	a4,a4,a5
1c00112c:	401c                	lw	a5,0(s0)
1c00112e:	c798                	sw	a4,8(a5)
1c001130:	3151                	jal	1c000db4 <plp_dma_counter_alloc>
1c001132:	872a                	mv	a4,a0
1c001134:	401c                	lw	a5,0(s0)
1c001136:	c398                	sw	a4,0(a5)
1c001138:	fdc42603          	lw	a2,-36(s0)
1c00113c:	fd842583          	lw	a1,-40(s0)
1c001140:	fc042503          	lw	a0,-64(s0)
1c001144:	3bb1                	jal	1c000ea0 <plp_dma_cmd_push>
1c001146:	401c                	lw	a5,0(s0)
1c001148:	4b9c                	lw	a5,16(a5)
1c00114a:	c781                	beqz	a5,1c001152 <__cl_dma_copy+0xd2>
1c00114c:	401c                	lw	a5,0(s0)
1c00114e:	00f02a23          	sw	a5,20(zero) # 14 <__rt_bridge_eeprom_handle>
1c001152:	401c                	lw	a5,0(s0)
1c001154:	00f02823          	sw	a5,16(zero) # 10 <__rt_bridge_flash_cs>
1c001158:	0001                	nop
1c00115a:	50f2                	lw	ra,60(sp)
1c00115c:	5462                	lw	s0,56(sp)
1c00115e:	6121                	addi	sp,sp,64
1c001160:	8082                	ret

1c001162 <__cl_dma_memcpy>:
1c001162:	711d                	addi	sp,sp,-96
1c001164:	ce86                	sw	ra,92(sp)
1c001166:	cca2                	sw	s0,88(sp)
1c001168:	1080                	addi	s0,sp,96
1c00116a:	fca42623          	sw	a0,-52(s0)
1c00116e:	fcb42423          	sw	a1,-56(s0)
1c001172:	fcd42023          	sw	a3,-64(s0)
1c001176:	fae42e23          	sw	a4,-68(s0)
1c00117a:	faf42c23          	sw	a5,-72(s0)
1c00117e:	87b2                	mv	a5,a2
1c001180:	fcf41323          	sh	a5,-58(s0)
1c001184:	3ba9                	jal	1c000ede <rt_irq_disable>
1c001186:	fea42423          	sw	a0,-24(s0)
1c00118a:	67a1                	lui	a5,0x8
1c00118c:	fef42223          	sw	a5,-28(s0)
1c001190:	fc645783          	lhu	a5,-58(s0)
1c001194:	fe442703          	lw	a4,-28(s0)
1c001198:	04e7fa63          	bleu	a4,a5,1c0011ec <__cl_dma_memcpy+0x8a>
1c00119c:	57fd                	li	a5,-1
1c00119e:	fef42623          	sw	a5,-20(s0)
1c0011a2:	fbc42783          	lw	a5,-68(s0)
1c0011a6:	e781                	bnez	a5,1c0011ae <__cl_dma_memcpy+0x4c>
1c0011a8:	3131                	jal	1c000db4 <plp_dma_counter_alloc>
1c0011aa:	fea42623          	sw	a0,-20(s0)
1c0011ae:	fc042503          	lw	a0,-64(s0)
1c0011b2:	fc645583          	lhu	a1,-58(s0)
1c0011b6:	4785                	li	a5,1
1c0011b8:	4701                	li	a4,0
1c0011ba:	4685                	li	a3,1
1c0011bc:	4601                	li	a2,0
1c0011be:	3905                	jal	1c000dee <plp_dma_getCmd>
1c0011c0:	fca42823          	sw	a0,-48(s0)
1c0011c4:	fcc42603          	lw	a2,-52(s0)
1c0011c8:	fc842583          	lw	a1,-56(s0)
1c0011cc:	fd042503          	lw	a0,-48(s0)
1c0011d0:	39c1                	jal	1c000ea0 <plp_dma_cmd_push>
1c0011d2:	fbc42783          	lw	a5,-68(s0)
1c0011d6:	e791                	bnez	a5,1c0011e2 <__cl_dma_memcpy+0x80>
1c0011d8:	fb842783          	lw	a5,-72(s0)
1c0011dc:	fec42703          	lw	a4,-20(s0)
1c0011e0:	c398                	sw	a4,0(a5)
1c0011e2:	fb842783          	lw	a5,-72(s0)
1c0011e6:	0007a823          	sw	zero,16(a5) # 8010 <__rt_stack_size+0x7810>
1c0011ea:	a059                	j	1c001270 <__cl_dma_memcpy+0x10e>
1c0011ec:	fe042023          	sw	zero,-32(s0)
1c0011f0:	fc042e23          	sw	zero,-36(s0)
1c0011f4:	fc042c23          	sw	zero,-40(s0)
1c0011f8:	fc042a23          	sw	zero,-44(s0)
1c0011fc:	fe442783          	lw	a5,-28(s0)
1c001200:	fcf42c23          	sw	a5,-40(s0)
1c001204:	fe442783          	lw	a5,-28(s0)
1c001208:	fef42023          	sw	a5,-32(s0)
1c00120c:	fe442783          	lw	a5,-28(s0)
1c001210:	fcf42e23          	sw	a5,-36(s0)
1c001214:	fc042503          	lw	a0,-64(s0)
1c001218:	4785                	li	a5,1
1c00121a:	4705                	li	a4,1
1c00121c:	4681                	li	a3,0
1c00121e:	4601                	li	a2,0
1c001220:	fd842583          	lw	a1,-40(s0)
1c001224:	36e9                	jal	1c000dee <plp_dma_getCmd>
1c001226:	fca42a23          	sw	a0,-44(s0)
1c00122a:	fc042503          	lw	a0,-64(s0)
1c00122e:	4785                	li	a5,1
1c001230:	4705                	li	a4,1
1c001232:	4681                	li	a3,0
1c001234:	4601                	li	a2,0
1c001236:	4581                	li	a1,0
1c001238:	3e5d                	jal	1c000dee <plp_dma_getCmd>
1c00123a:	872a                	mv	a4,a0
1c00123c:	fb842783          	lw	a5,-72(s0)
1c001240:	c3d8                	sw	a4,4(a5)
1c001242:	fc645603          	lhu	a2,-58(s0)
1c001246:	fbc42783          	lw	a5,-68(s0)
1c00124a:	0ff7f713          	andi	a4,a5,255
1c00124e:	fb842783          	lw	a5,-72(s0)
1c001252:	c03e                	sw	a5,0(sp)
1c001254:	fd442883          	lw	a7,-44(s0)
1c001258:	883a                	mv	a6,a4
1c00125a:	fc042783          	lw	a5,-64(s0)
1c00125e:	fdc42703          	lw	a4,-36(s0)
1c001262:	fe042683          	lw	a3,-32(s0)
1c001266:	fc842583          	lw	a1,-56(s0)
1c00126a:	fcc42503          	lw	a0,-52(s0)
1c00126e:	3d09                	jal	1c001080 <__cl_dma_copy>
1c001270:	fe842503          	lw	a0,-24(s0)
1c001274:	3141                	jal	1c000ef4 <rt_irq_restore>
1c001276:	0001                	nop
1c001278:	40f6                	lw	ra,92(sp)
1c00127a:	4466                	lw	s0,88(sp)
1c00127c:	6125                	addi	sp,sp,96
1c00127e:	8082                	ret

1c001280 <__cl_dma_wait>:
1c001280:	7179                	addi	sp,sp,-48
1c001282:	d606                	sw	ra,44(sp)
1c001284:	d422                	sw	s0,40(sp)
1c001286:	1800                	addi	s0,sp,48
1c001288:	fca42e23          	sw	a0,-36(s0)
1c00128c:	fdc42783          	lw	a5,-36(s0)
1c001290:	4b9c                	lw	a5,16(a5)
1c001292:	e7b1                	bnez	a5,1c0012de <__cl_dma_wait+0x5e>
1c001294:	31a9                	jal	1c000ede <rt_irq_disable>
1c001296:	fea42623          	sw	a0,-20(s0)
1c00129a:	a811                	j	1c0012ae <__cl_dma_wait+0x2e>
1c00129c:	fec42503          	lw	a0,-20(s0)
1c0012a0:	3991                	jal	1c000ef4 <rt_irq_restore>
1c0012a2:	10000513          	li	a0,256
1c0012a6:	32dd                	jal	1c000c8c <eu_evt_maskWaitAndClr>
1c0012a8:	391d                	jal	1c000ede <rt_irq_disable>
1c0012aa:	fea42623          	sw	a0,-20(s0)
1c0012ae:	002047b7          	lui	a5,0x204
1c0012b2:	4047a703          	lw	a4,1028(a5) # 204404 <__L2+0x184404>
1c0012b6:	fdc42783          	lw	a5,-36(s0)
1c0012ba:	439c                	lw	a5,0(a5)
1c0012bc:	40f757b3          	sra	a5,a4,a5
1c0012c0:	fc17b7b3          	p.bclr	a5,a5,30,1
1c0012c4:	ffe1                	bnez	a5,1c00129c <__cl_dma_wait+0x1c>
1c0012c6:	fdc42783          	lw	a5,-36(s0)
1c0012ca:	439c                	lw	a5,0(a5)
1c0012cc:	853e                	mv	a0,a5
1c0012ce:	3cf5                	jal	1c000dca <plp_dma_counter_free>
1c0012d0:	fec42503          	lw	a0,-20(s0)
1c0012d4:	3105                	jal	1c000ef4 <rt_irq_restore>
1c0012d6:	a809                	j	1c0012e8 <__cl_dma_wait+0x68>
1c0012d8:	02000513          	li	a0,32
1c0012dc:	3a45                	jal	1c000c8c <eu_evt_maskWaitAndClr>
1c0012de:	fdc42783          	lw	a5,-36(s0)
1c0012e2:	07e1                	addi	a5,a5,24
1c0012e4:	439c                	lw	a5,0(a5)
1c0012e6:	fbed                	bnez	a5,1c0012d8 <__cl_dma_wait+0x58>
1c0012e8:	0001                	nop
1c0012ea:	50b2                	lw	ra,44(sp)
1c0012ec:	5422                	lw	s0,40(sp)
1c0012ee:	6145                	addi	sp,sp,48
1c0012f0:	8082                	ret

1c0012f2 <pi_cl_dma_wait>:
1c0012f2:	1101                	addi	sp,sp,-32
1c0012f4:	ce06                	sw	ra,28(sp)
1c0012f6:	cc22                	sw	s0,24(sp)
1c0012f8:	1000                	addi	s0,sp,32
1c0012fa:	fea42623          	sw	a0,-20(s0)
1c0012fe:	fec42503          	lw	a0,-20(s0)
1c001302:	3fbd                	jal	1c001280 <__cl_dma_wait>
1c001304:	0001                	nop
1c001306:	40f2                	lw	ra,28(sp)
1c001308:	4462                	lw	s0,24(sp)
1c00130a:	6105                	addi	sp,sp,32
1c00130c:	8082                	ret

1c00130e <pi_cl_dma_cmd>:
1c00130e:	7179                	addi	sp,sp,-48
1c001310:	d606                	sw	ra,44(sp)
1c001312:	d422                	sw	s0,40(sp)
1c001314:	1800                	addi	s0,sp,48
1c001316:	fea42623          	sw	a0,-20(s0)
1c00131a:	feb42423          	sw	a1,-24(s0)
1c00131e:	fec42223          	sw	a2,-28(s0)
1c001322:	fed42023          	sw	a3,-32(s0)
1c001326:	fce42e23          	sw	a4,-36(s0)
1c00132a:	fe442783          	lw	a5,-28(s0)
1c00132e:	1007d633          	p.exthz	a2,a5
1c001332:	fdc42783          	lw	a5,-36(s0)
1c001336:	4701                	li	a4,0
1c001338:	fe042683          	lw	a3,-32(s0)
1c00133c:	fe842583          	lw	a1,-24(s0)
1c001340:	fec42503          	lw	a0,-20(s0)
1c001344:	3d39                	jal	1c001162 <__cl_dma_memcpy>
1c001346:	0001                	nop
1c001348:	50b2                	lw	ra,44(sp)
1c00134a:	5422                	lw	s0,40(sp)
1c00134c:	6145                	addi	sp,sp,48
1c00134e:	8082                	ret

1c001350 <rt_core_id>:
1c001350:	1141                	addi	sp,sp,-16
1c001352:	c606                	sw	ra,12(sp)
1c001354:	c422                	sw	s0,8(sp)
1c001356:	0800                	addi	s0,sp,16
1c001358:	889ff0ef          	jal	ra,1c000be0 <hal_core_id>
1c00135c:	87aa                	mv	a5,a0
1c00135e:	853e                	mv	a0,a5
1c001360:	40b2                	lw	ra,12(sp)
1c001362:	4422                	lw	s0,8(sp)
1c001364:	0141                	addi	sp,sp,16
1c001366:	8082                	ret

1c001368 <rt_nb_pe>:
1c001368:	1141                	addi	sp,sp,-16
1c00136a:	c622                	sw	s0,12(sp)
1c00136c:	0800                	addi	s0,sp,16
1c00136e:	47a1                	li	a5,8
1c001370:	853e                	mv	a0,a5
1c001372:	4432                	lw	s0,12(sp)
1c001374:	0141                	addi	sp,sp,16
1c001376:	8082                	ret

1c001378 <rt_compiler_barrier>:
1c001378:	1141                	addi	sp,sp,-16
1c00137a:	c622                	sw	s0,12(sp)
1c00137c:	0800                	addi	s0,sp,16
1c00137e:	0001                	nop
1c001380:	4432                	lw	s0,12(sp)
1c001382:	0141                	addi	sp,sp,16
1c001384:	8082                	ret

1c001386 <pmsis_kickoff>:
1c001386:	1101                	addi	sp,sp,-32
1c001388:	ce06                	sw	ra,28(sp)
1c00138a:	cc22                	sw	s0,24(sp)
1c00138c:	1000                	addi	s0,sp,32
1c00138e:	fea42623          	sw	a0,-20(s0)
1c001392:	fec42783          	lw	a5,-20(s0)
1c001396:	9782                	jalr	a5
1c001398:	57fd                	li	a5,-1
1c00139a:	853e                	mv	a0,a5
1c00139c:	40f2                	lw	ra,28(sp)
1c00139e:	4462                	lw	s0,24(sp)
1c0013a0:	6105                	addi	sp,sp,32
1c0013a2:	8082                	ret

1c0013a4 <pmsis_exit>:
1c0013a4:	1101                	addi	sp,sp,-32
1c0013a6:	ce06                	sw	ra,28(sp)
1c0013a8:	cc22                	sw	s0,24(sp)
1c0013aa:	1000                	addi	s0,sp,32
1c0013ac:	fea42623          	sw	a0,-20(s0)
1c0013b0:	fec42503          	lw	a0,-20(s0)
1c0013b4:	57c020ef          	jal	ra,1c003930 <exit>

1c0013b8 <serch_matrix>:
1c0013b8:	7159                	addi	sp,sp,-112
1c0013ba:	d686                	sw	ra,108(sp)
1c0013bc:	d4a2                	sw	s0,104(sp)
1c0013be:	1880                	addi	s0,sp,112
1c0013c0:	f8a42e23          	sw	a0,-100(s0)
1c0013c4:	36b1                	jal	1c000f10 <pi_core_id>
1c0013c6:	87aa                	mv	a5,a0
1c0013c8:	fef42023          	sw	a5,-32(s0)
1c0013cc:	1c0057b7          	lui	a5,0x1c005
1c0013d0:	2d47a783          	lw	a5,724(a5) # 1c0052d4 <rows>
1c0013d4:	fcf42e23          	sw	a5,-36(s0)
1c0013d8:	fdc42783          	lw	a5,-36(s0)
1c0013dc:	079d                	addi	a5,a5,7
1c0013de:	41f7d713          	srai	a4,a5,0x1f
1c0013e2:	f8373733          	p.bclr	a4,a4,28,3
1c0013e6:	97ba                	add	a5,a5,a4
1c0013e8:	878d                	srai	a5,a5,0x3
1c0013ea:	fcf42c23          	sw	a5,-40(s0)
1c0013ee:	fe042703          	lw	a4,-32(s0)
1c0013f2:	fd842783          	lw	a5,-40(s0)
1c0013f6:	02f707b3          	mul	a5,a4,a5
1c0013fa:	fcf42a23          	sw	a5,-44(s0)
1c0013fe:	fd442703          	lw	a4,-44(s0)
1c001402:	fd842783          	lw	a5,-40(s0)
1c001406:	97ba                	add	a5,a5,a4
1c001408:	fef42623          	sw	a5,-20(s0)
1c00140c:	fec42703          	lw	a4,-20(s0)
1c001410:	fdc42783          	lw	a5,-36(s0)
1c001414:	00e7d663          	ble	a4,a5,1c001420 <serch_matrix+0x68>
1c001418:	fdc42783          	lw	a5,-36(s0)
1c00141c:	fef42623          	sw	a5,-20(s0)
1c001420:	fec42703          	lw	a4,-20(s0)
1c001424:	fd442783          	lw	a5,-44(s0)
1c001428:	40f707b3          	sub	a5,a4,a5
1c00142c:	fcf42823          	sw	a5,-48(s0)
1c001430:	3679                	jal	1c000fbe <pi_cl_team_critical_enter>
1c001432:	fd042783          	lw	a5,-48(s0)
1c001436:	1c005737          	lui	a4,0x1c005
1c00143a:	2f472703          	lw	a4,756(a4) # 1c0052f4 <cols>
1c00143e:	02e787b3          	mul	a5,a5,a4
1c001442:	078a                	slli	a5,a5,0x2
1c001444:	85be                	mv	a1,a5
1c001446:	1c0057b7          	lui	a5,0x1c005
1c00144a:	2f878513          	addi	a0,a5,760 # 1c0052f8 <cluster_dev>
1c00144e:	65b000ef          	jal	ra,1c0022a8 <pi_cl_l1_malloc>
1c001452:	fca42623          	sw	a0,-52(s0)
1c001456:	fcc42783          	lw	a5,-52(s0)
1c00145a:	16078a63          	beqz	a5,1c0015ce <serch_matrix+0x216>
1c00145e:	3e95                	jal	1c000fd2 <pi_cl_team_critical_exit>
1c001460:	fd442783          	lw	a5,-44(s0)
1c001464:	fef42423          	sw	a5,-24(s0)
1c001468:	a8d5                	j	1c00155c <serch_matrix+0x1a4>
1c00146a:	fe842703          	lw	a4,-24(s0)
1c00146e:	19000793          	li	a5,400
1c001472:	02f70733          	mul	a4,a4,a5
1c001476:	1c0057b7          	lui	a5,0x1c005
1c00147a:	30478793          	addi	a5,a5,772 # 1c005304 <matrix>
1c00147e:	97ba                	add	a5,a5,a4
1c001480:	853e                	mv	a0,a5
1c001482:	fe842703          	lw	a4,-24(s0)
1c001486:	fd442783          	lw	a5,-44(s0)
1c00148a:	8f1d                	sub	a4,a4,a5
1c00148c:	1c0057b7          	lui	a5,0x1c005
1c001490:	2f47a783          	lw	a5,756(a5) # 1c0052f4 <cols>
1c001494:	02f707b3          	mul	a5,a4,a5
1c001498:	078a                	slli	a5,a5,0x2
1c00149a:	fcc42703          	lw	a4,-52(s0)
1c00149e:	97ba                	add	a5,a5,a4
1c0014a0:	85be                	mv	a1,a5
1c0014a2:	1c0057b7          	lui	a5,0x1c005
1c0014a6:	2f47a783          	lw	a5,756(a5) # 1c0052f4 <cols>
1c0014aa:	078a                	slli	a5,a5,0x2
1c0014ac:	fac40713          	addi	a4,s0,-84
1c0014b0:	4685                	li	a3,1
1c0014b2:	863e                	mv	a2,a5
1c0014b4:	3da9                	jal	1c00130e <pi_cl_dma_cmd>
1c0014b6:	fac40793          	addi	a5,s0,-84
1c0014ba:	853e                	mv	a0,a5
1c0014bc:	3d1d                	jal	1c0012f2 <pi_cl_dma_wait>
1c0014be:	fe042223          	sw	zero,-28(s0)
1c0014c2:	a041                	j	1c001542 <serch_matrix+0x18a>
1c0014c4:	fe842703          	lw	a4,-24(s0)
1c0014c8:	fd442783          	lw	a5,-44(s0)
1c0014cc:	8f1d                	sub	a4,a4,a5
1c0014ce:	1c0057b7          	lui	a5,0x1c005
1c0014d2:	2f47a783          	lw	a5,756(a5) # 1c0052f4 <cols>
1c0014d6:	02f70733          	mul	a4,a4,a5
1c0014da:	fe442783          	lw	a5,-28(s0)
1c0014de:	97ba                	add	a5,a5,a4
1c0014e0:	078a                	slli	a5,a5,0x2
1c0014e2:	fcc42703          	lw	a4,-52(s0)
1c0014e6:	97ba                	add	a5,a5,a4
1c0014e8:	4398                	lw	a4,0(a5)
1c0014ea:	1c0057b7          	lui	a5,0x1c005
1c0014ee:	fe042683          	lw	a3,-32(s0)
1c0014f2:	068a                	slli	a3,a3,0x2
1c0014f4:	f6478793          	addi	a5,a5,-156 # 1c004f64 <max_values>
1c0014f8:	97b6                	add	a5,a5,a3
1c0014fa:	439c                	lw	a5,0(a5)
1c0014fc:	02e7de63          	ble	a4,a5,1c001538 <serch_matrix+0x180>
1c001500:	fe842703          	lw	a4,-24(s0)
1c001504:	fd442783          	lw	a5,-44(s0)
1c001508:	8f1d                	sub	a4,a4,a5
1c00150a:	1c0057b7          	lui	a5,0x1c005
1c00150e:	2f47a783          	lw	a5,756(a5) # 1c0052f4 <cols>
1c001512:	02f70733          	mul	a4,a4,a5
1c001516:	fe442783          	lw	a5,-28(s0)
1c00151a:	97ba                	add	a5,a5,a4
1c00151c:	078a                	slli	a5,a5,0x2
1c00151e:	fcc42703          	lw	a4,-52(s0)
1c001522:	97ba                	add	a5,a5,a4
1c001524:	4398                	lw	a4,0(a5)
1c001526:	1c0057b7          	lui	a5,0x1c005
1c00152a:	fe042683          	lw	a3,-32(s0)
1c00152e:	068a                	slli	a3,a3,0x2
1c001530:	f6478793          	addi	a5,a5,-156 # 1c004f64 <max_values>
1c001534:	97b6                	add	a5,a5,a3
1c001536:	c398                	sw	a4,0(a5)
1c001538:	fe442783          	lw	a5,-28(s0)
1c00153c:	0785                	addi	a5,a5,1
1c00153e:	fef42223          	sw	a5,-28(s0)
1c001542:	1c0057b7          	lui	a5,0x1c005
1c001546:	2f47a783          	lw	a5,756(a5) # 1c0052f4 <cols>
1c00154a:	fe442703          	lw	a4,-28(s0)
1c00154e:	f6f74be3          	blt	a4,a5,1c0014c4 <serch_matrix+0x10c>
1c001552:	fe842783          	lw	a5,-24(s0)
1c001556:	0785                	addi	a5,a5,1
1c001558:	fef42423          	sw	a5,-24(s0)
1c00155c:	fe842703          	lw	a4,-24(s0)
1c001560:	fec42783          	lw	a5,-20(s0)
1c001564:	f0f743e3          	blt	a4,a5,1c00146a <serch_matrix+0xb2>
1c001568:	3c99                	jal	1c000fbe <pi_cl_team_critical_enter>
1c00156a:	1c0057b7          	lui	a5,0x1c005
1c00156e:	fe042703          	lw	a4,-32(s0)
1c001572:	070a                	slli	a4,a4,0x2
1c001574:	f6478793          	addi	a5,a5,-156 # 1c004f64 <max_values>
1c001578:	97ba                	add	a5,a5,a4
1c00157a:	4398                	lw	a4,0(a5)
1c00157c:	1c0057b7          	lui	a5,0x1c005
1c001580:	f6478793          	addi	a5,a5,-156 # 1c004f64 <max_values>
1c001584:	539c                	lw	a5,32(a5)
1c001586:	02e7d063          	ble	a4,a5,1c0015a6 <serch_matrix+0x1ee>
1c00158a:	1c0057b7          	lui	a5,0x1c005
1c00158e:	fe042703          	lw	a4,-32(s0)
1c001592:	070a                	slli	a4,a4,0x2
1c001594:	f6478793          	addi	a5,a5,-156 # 1c004f64 <max_values>
1c001598:	97ba                	add	a5,a5,a4
1c00159a:	4398                	lw	a4,0(a5)
1c00159c:	1c0057b7          	lui	a5,0x1c005
1c0015a0:	f6478793          	addi	a5,a5,-156 # 1c004f64 <max_values>
1c0015a4:	d398                	sw	a4,32(a5)
1c0015a6:	3435                	jal	1c000fd2 <pi_cl_team_critical_exit>
1c0015a8:	fd042783          	lw	a5,-48(s0)
1c0015ac:	1c005737          	lui	a4,0x1c005
1c0015b0:	2f472703          	lw	a4,756(a4) # 1c0052f4 <cols>
1c0015b4:	02e787b3          	mul	a5,a5,a4
1c0015b8:	078a                	slli	a5,a5,0x2
1c0015ba:	863e                	mv	a2,a5
1c0015bc:	fcc42583          	lw	a1,-52(s0)
1c0015c0:	1c0057b7          	lui	a5,0x1c005
1c0015c4:	2f878513          	addi	a0,a5,760 # 1c0052f8 <cluster_dev>
1c0015c8:	4e5000ef          	jal	ra,1c0022ac <pi_cl_l1_free>
1c0015cc:	a011                	j	1c0015d0 <serch_matrix+0x218>
1c0015ce:	0001                	nop
1c0015d0:	50b6                	lw	ra,108(sp)
1c0015d2:	5426                	lw	s0,104(sp)
1c0015d4:	6165                	addi	sp,sp,112
1c0015d6:	8082                	ret

1c0015d8 <my_rand>:
1c0015d8:	1141                	addi	sp,sp,-16
1c0015da:	c622                	sw	s0,12(sp)
1c0015dc:	0800                	addi	s0,sp,16
1c0015de:	1c0057b7          	lui	a5,0x1c005
1c0015e2:	0907a703          	lw	a4,144(a5) # 1c005090 <seed>
1c0015e6:	47bd                	li	a5,15
1c0015e8:	02f70733          	mul	a4,a4,a5
1c0015ec:	0012d7b7          	lui	a5,0x12d
1c0015f0:	68778793          	addi	a5,a5,1671 # 12d687 <__L2+0xad687>
1c0015f4:	973e                	add	a4,a4,a5
1c0015f6:	1c0057b7          	lui	a5,0x1c005
1c0015fa:	08e7a823          	sw	a4,144(a5) # 1c005090 <seed>
1c0015fe:	1c0057b7          	lui	a5,0x1c005
1c001602:	0907a783          	lw	a5,144(a5) # 1c005090 <seed>
1c001606:	83c1                	srli	a5,a5,0x10
1c001608:	873e                	mv	a4,a5
1c00160a:	67a1                	lui	a5,0x8
1c00160c:	17fd                	addi	a5,a5,-1
1c00160e:	8ff9                	and	a5,a5,a4
1c001610:	853e                	mv	a0,a5
1c001612:	4432                	lw	s0,12(sp)
1c001614:	0141                	addi	sp,sp,16
1c001616:	8082                	ret

1c001618 <generateAndPrintRandomMatrix>:
1c001618:	7179                	addi	sp,sp,-48
1c00161a:	d606                	sw	ra,44(sp)
1c00161c:	d422                	sw	s0,40(sp)
1c00161e:	1800                	addi	s0,sp,48
1c001620:	fca42e23          	sw	a0,-36(s0)
1c001624:	fcb42c23          	sw	a1,-40(s0)
1c001628:	fe042623          	sw	zero,-20(s0)
1c00162c:	a061                	j	1c0016b4 <generateAndPrintRandomMatrix+0x9c>
1c00162e:	fe042423          	sw	zero,-24(s0)
1c001632:	a09d                	j	1c001698 <generateAndPrintRandomMatrix+0x80>
1c001634:	3755                	jal	1c0015d8 <my_rand>
1c001636:	872a                	mv	a4,a0
1c001638:	3e800793          	li	a5,1000
1c00163c:	02f76733          	rem	a4,a4,a5
1c001640:	1c0057b7          	lui	a5,0x1c005
1c001644:	fec42603          	lw	a2,-20(s0)
1c001648:	06400693          	li	a3,100
1c00164c:	02d60633          	mul	a2,a2,a3
1c001650:	fe842683          	lw	a3,-24(s0)
1c001654:	96b2                	add	a3,a3,a2
1c001656:	068a                	slli	a3,a3,0x2
1c001658:	30478793          	addi	a5,a5,772 # 1c005304 <matrix>
1c00165c:	97b6                	add	a5,a5,a3
1c00165e:	c398                	sw	a4,0(a5)
1c001660:	1c0057b7          	lui	a5,0x1c005
1c001664:	fec42683          	lw	a3,-20(s0)
1c001668:	06400713          	li	a4,100
1c00166c:	02e686b3          	mul	a3,a3,a4
1c001670:	fe842703          	lw	a4,-24(s0)
1c001674:	9736                	add	a4,a4,a3
1c001676:	070a                	slli	a4,a4,0x2
1c001678:	30478793          	addi	a5,a5,772 # 1c005304 <matrix>
1c00167c:	97ba                	add	a5,a5,a4
1c00167e:	439c                	lw	a5,0(a5)
1c001680:	85be                	mv	a1,a5
1c001682:	1c0057b7          	lui	a5,0x1c005
1c001686:	b4c78513          	addi	a0,a5,-1204 # 1c004b4c <__DTOR_END__>
1c00168a:	3ae020ef          	jal	ra,1c003a38 <printf>
1c00168e:	fe842783          	lw	a5,-24(s0)
1c001692:	0785                	addi	a5,a5,1
1c001694:	fef42423          	sw	a5,-24(s0)
1c001698:	fe842703          	lw	a4,-24(s0)
1c00169c:	fd842783          	lw	a5,-40(s0)
1c0016a0:	f8f74ae3          	blt	a4,a5,1c001634 <generateAndPrintRandomMatrix+0x1c>
1c0016a4:	4529                	li	a0,10
1c0016a6:	25e020ef          	jal	ra,1c003904 <putchar>
1c0016aa:	fec42783          	lw	a5,-20(s0)
1c0016ae:	0785                	addi	a5,a5,1
1c0016b0:	fef42623          	sw	a5,-20(s0)
1c0016b4:	fec42703          	lw	a4,-20(s0)
1c0016b8:	fdc42783          	lw	a5,-36(s0)
1c0016bc:	f6f749e3          	blt	a4,a5,1c00162e <generateAndPrintRandomMatrix+0x16>
1c0016c0:	0001                	nop
1c0016c2:	50b2                	lw	ra,44(sp)
1c0016c4:	5422                	lw	s0,40(sp)
1c0016c6:	6145                	addi	sp,sp,48
1c0016c8:	8082                	ret

1c0016ca <cluster_delegate>:
1c0016ca:	1101                	addi	sp,sp,-32
1c0016cc:	ce06                	sw	ra,28(sp)
1c0016ce:	cc22                	sw	s0,24(sp)
1c0016d0:	1000                	addi	s0,sp,32
1c0016d2:	fea42623          	sw	a0,-20(s0)
1c0016d6:	1c0057b7          	lui	a5,0x1c005
1c0016da:	b5078513          	addi	a0,a5,-1200 # 1c004b50 <__DTOR_END__+0x4>
1c0016de:	1b8020ef          	jal	ra,1c003896 <puts>
1c0016e2:	845ff0ef          	jal	ra,1c000f26 <pi_cl_cluster_nb_cores>
1c0016e6:	872a                	mv	a4,a0
1c0016e8:	fec42603          	lw	a2,-20(s0)
1c0016ec:	1c0017b7          	lui	a5,0x1c001
1c0016f0:	3b878593          	addi	a1,a5,952 # 1c0013b8 <serch_matrix>
1c0016f4:	853a                	mv	a0,a4
1c0016f6:	89dff0ef          	jal	ra,1c000f92 <pi_cl_team_fork>
1c0016fa:	1c0057b7          	lui	a5,0x1c005
1c0016fe:	b6c78513          	addi	a0,a5,-1172 # 1c004b6c <__DTOR_END__+0x20>
1c001702:	194020ef          	jal	ra,1c003896 <puts>
1c001706:	0001                	nop
1c001708:	40f2                	lw	ra,28(sp)
1c00170a:	4462                	lw	s0,24(sp)
1c00170c:	6105                	addi	sp,sp,32
1c00170e:	8082                	ret

1c001710 <helloworld>:
1c001710:	7139                	addi	sp,sp,-64
1c001712:	de06                	sw	ra,60(sp)
1c001714:	dc22                	sw	s0,56(sp)
1c001716:	0080                	addi	s0,sp,64
1c001718:	1c0057b7          	lui	a5,0x1c005
1c00171c:	b8878513          	addi	a0,a5,-1144 # 1c004b88 <__DTOR_END__+0x3c>
1c001720:	176020ef          	jal	ra,1c003896 <puts>
1c001724:	fe042623          	sw	zero,-20(s0)
1c001728:	1c0057b7          	lui	a5,0x1c005
1c00172c:	2d878513          	addi	a0,a5,728 # 1c0052d8 <cl_conf>
1c001730:	64c010ef          	jal	ra,1c002d7c <pi_cluster_conf_init>
1c001734:	1c0057b7          	lui	a5,0x1c005
1c001738:	2d878793          	addi	a5,a5,728 # 1c0052d8 <cl_conf>
1c00173c:	0007a223          	sw	zero,4(a5)
1c001740:	1c0057b7          	lui	a5,0x1c005
1c001744:	2d878593          	addi	a1,a5,728 # 1c0052d8 <cl_conf>
1c001748:	1c0057b7          	lui	a5,0x1c005
1c00174c:	2f878513          	addi	a0,a5,760 # 1c0052f8 <cluster_dev>
1c001750:	2475                	jal	1c0019fc <pi_open_from_conf>
1c001752:	1c0057b7          	lui	a5,0x1c005
1c001756:	2f878513          	addi	a0,a5,760 # 1c0052f8 <cluster_dev>
1c00175a:	628010ef          	jal	ra,1c002d82 <pi_cluster_open>
1c00175e:	87aa                	mv	a5,a0
1c001760:	cb89                	beqz	a5,1c001772 <helloworld+0x62>
1c001762:	1c0057b7          	lui	a5,0x1c005
1c001766:	ba478513          	addi	a0,a5,-1116 # 1c004ba4 <__DTOR_END__+0x58>
1c00176a:	12c020ef          	jal	ra,1c003896 <puts>
1c00176e:	557d                	li	a0,-1
1c001770:	3915                	jal	1c0013a4 <pmsis_exit>
1c001772:	fc040713          	addi	a4,s0,-64
1c001776:	4601                	li	a2,0
1c001778:	1c0017b7          	lui	a5,0x1c001
1c00177c:	6ca78593          	addi	a1,a5,1738 # 1c0016ca <cluster_delegate>
1c001780:	853a                	mv	a0,a4
1c001782:	beeff0ef          	jal	ra,1c000b70 <pi_cluster_task>
1c001786:	87aa                	mv	a5,a0
1c001788:	85be                	mv	a1,a5
1c00178a:	1c0057b7          	lui	a5,0x1c005
1c00178e:	2f878513          	addi	a0,a5,760 # 1c0052f8 <cluster_dev>
1c001792:	1bd010ef          	jal	ra,1c00314e <pi_cluster_send_task_to_cl>
1c001796:	1c0057b7          	lui	a5,0x1c005
1c00179a:	2f878513          	addi	a0,a5,760 # 1c0052f8 <cluster_dev>
1c00179e:	6b8010ef          	jal	ra,1c002e56 <pi_cluster_close>
1c0017a2:	1c0057b7          	lui	a5,0x1c005
1c0017a6:	f6478793          	addi	a5,a5,-156 # 1c004f64 <max_values>
1c0017aa:	539c                	lw	a5,32(a5)
1c0017ac:	85be                	mv	a1,a5
1c0017ae:	1c0057b7          	lui	a5,0x1c005
1c0017b2:	bbc78513          	addi	a0,a5,-1092 # 1c004bbc <__DTOR_END__+0x70>
1c0017b6:	282020ef          	jal	ra,1c003a38 <printf>
1c0017ba:	1c0057b7          	lui	a5,0x1c005
1c0017be:	bdc78513          	addi	a0,a5,-1060 # 1c004bdc <__DTOR_END__+0x90>
1c0017c2:	0d4020ef          	jal	ra,1c003896 <puts>
1c0017c6:	fec42783          	lw	a5,-20(s0)
1c0017ca:	853e                	mv	a0,a5
1c0017cc:	3ee1                	jal	1c0013a4 <pmsis_exit>
1c0017ce:	0001                	nop
1c0017d0:	50f2                	lw	ra,60(sp)
1c0017d2:	5462                	lw	s0,56(sp)
1c0017d4:	6121                	addi	sp,sp,64
1c0017d6:	8082                	ret

1c0017d8 <main>:
1c0017d8:	1141                	addi	sp,sp,-16
1c0017da:	c606                	sw	ra,12(sp)
1c0017dc:	c422                	sw	s0,8(sp)
1c0017de:	0800                	addi	s0,sp,16
1c0017e0:	1c0057b7          	lui	a5,0x1c005
1c0017e4:	bec78513          	addi	a0,a5,-1044 # 1c004bec <__DTOR_END__+0xa0>
1c0017e8:	0ae020ef          	jal	ra,1c003896 <puts>
1c0017ec:	33f5                	jal	1c0015d8 <my_rand>
1c0017ee:	872a                	mv	a4,a0
1c0017f0:	06400793          	li	a5,100
1c0017f4:	02f767b3          	rem	a5,a4,a5
1c0017f8:	00878713          	addi	a4,a5,8
1c0017fc:	1c0057b7          	lui	a5,0x1c005
1c001800:	2ce7aa23          	sw	a4,724(a5) # 1c0052d4 <rows>
1c001804:	3bd1                	jal	1c0015d8 <my_rand>
1c001806:	872a                	mv	a4,a0
1c001808:	06400793          	li	a5,100
1c00180c:	02f767b3          	rem	a5,a4,a5
1c001810:	00878713          	addi	a4,a5,8
1c001814:	1c0057b7          	lui	a5,0x1c005
1c001818:	2ee7aa23          	sw	a4,756(a5) # 1c0052f4 <cols>
1c00181c:	1c0057b7          	lui	a5,0x1c005
1c001820:	2d47a703          	lw	a4,724(a5) # 1c0052d4 <rows>
1c001824:	1c0057b7          	lui	a5,0x1c005
1c001828:	2f47a783          	lw	a5,756(a5) # 1c0052f4 <cols>
1c00182c:	85be                	mv	a1,a5
1c00182e:	853a                	mv	a0,a4
1c001830:	33e5                	jal	1c001618 <generateAndPrintRandomMatrix>
1c001832:	1c0017b7          	lui	a5,0x1c001
1c001836:	71078513          	addi	a0,a5,1808 # 1c001710 <helloworld>
1c00183a:	36b1                	jal	1c001386 <pmsis_kickoff>
1c00183c:	87aa                	mv	a5,a0
1c00183e:	853e                	mv	a0,a5
1c001840:	40b2                	lw	ra,12(sp)
1c001842:	4422                	lw	s0,8(sp)
1c001844:	0141                	addi	sp,sp,16
1c001846:	8082                	ret

1c001848 <cluster_start>:
  This is useful when the mask must be updated before waiting for a specific event without modifying the other events (this saves a few instructions)
  \param evtMask Bit mask used to update the event mask. There is 1 bit per event, 1 means the corresponding bit is set in the event mask.
  */
static inline void eu_evt_maskSet(unsigned int evtMask)
{
  ARCHI_WRITE(ARCHI_EU_DEMUX_ADDR, EU_CORE_MASK_OR, evtMask);
1c001848:	002047b7          	lui	a5,0x204
1c00184c:	00070737          	lui	a4,0x70
1c001850:	00e7a423          	sw	a4,8(a5) # 204008 <__L2+0x184008>
  IP_WRITE_PTR(base, EU_DISPATCH_FIFO_ACCESS, value);
}

static inline void eu_dispatch_team_config(unsigned value)
{
  IP_WRITE(ARCHI_EU_DEMUX_ADDR, EU_DISPATCH_DEMUX_OFFSET + EU_DISPATCH_TEAM_CONFIG, value);
1c001854:	0ff00713          	li	a4,255
1c001858:	002046b7          	lui	a3,0x204
1c00185c:	08e6a223          	sw	a4,132(a3) # 204084 <__L2+0x184084>
  IP_WRITE(barAddr, EU_HW_BARR_TRIGGER_MASK, coreMask);
1c001860:	20078793          	addi	a5,a5,512
1c001864:	00e7a023          	sw	a4,0(a5)
  IP_WRITE(barAddr, EU_HW_BARR_TARGET_MASK, targetMask);
1c001868:	00e7a623          	sw	a4,12(a5)
    __rt_team_config(rt_nb_active_pe());
  }

#endif

}
1c00186c:	8082                	ret

1c00186e <__rt_init>:
{
1c00186e:	1101                	addi	sp,sp,-32
static inline void hal_pmu_bypass_set(unsigned int Value) {
  IP_WRITE(ARCHI_APB_SOC_CTRL_ADDR, APB_SOC_CL_BYPASS_OFFSET, Value);
}

static inline unsigned int hal_pmu_bypass_get() {
  return IP_READ(ARCHI_APB_SOC_CTRL_ADDR, APB_SOC_CL_BYPASS_OFFSET);
1c001870:	1a104737          	lui	a4,0x1a104
1c001874:	ce06                	sw	ra,28(sp)
1c001876:	cc22                	sw	s0,24(sp)
1c001878:	ca26                	sw	s1,20(sp)
1c00187a:	07072783          	lw	a5,112(a4) # 1a104070 <__l1_end+0xa104050>
  hal_pmu_bypass_set (ARCHI_REG_FIELD_SET (hal_pmu_bypass_get (), 1, 11, 1) );
1c00187e:	c0b7c7b3          	p.bset	a5,a5,0,11
  IP_WRITE(ARCHI_APB_SOC_CTRL_ADDR, APB_SOC_CL_BYPASS_OFFSET, Value);
1c001882:	06f72823          	sw	a5,112(a4)
  __rt_bridge_set_available();
1c001886:	2361                	jal	1c001e0e <__rt_bridge_set_available>
  cpu_stack_check_enable((int)__rt_fc_stack, (int)__rt_fc_stack + __rt_fc_stack_size);
1c001888:	1b0007b7          	lui	a5,0x1b000
1c00188c:	39878793          	addi	a5,a5,920 # 1b000398 <__rt_fc_stack>
 * Stack checking
 */

static inline void cpu_stack_check_enable(unsigned int base, unsigned int end)
{
  asm volatile ("csrwi 0x7D0, 0" :: );
1c001890:	7d005073          	csrwi	0x7d0,0
  asm volatile ("csrw  0x7D1, %0" :: "r" (base));
1c001894:	7d179073          	csrw	0x7d1,a5
1c001898:	1c005737          	lui	a4,0x1c005
1c00189c:	0a072703          	lw	a4,160(a4) # 1c0050a0 <__rt_fc_stack_size>
1c0018a0:	97ba                	add	a5,a5,a4
  asm volatile ("csrw  0x7D2, %0" :: "r" (end));
1c0018a2:	7d279073          	csrw	0x7d2,a5
  asm volatile ("csrwi 0x7D0, 1" :: );
1c0018a6:	7d00d073          	csrwi	0x7d0,1
  __rt_irq_init();
1c0018aa:	2ad5                	jal	1c001a9e <__rt_irq_init>

#include "archi/pulp.h"
#include "archi/soc_eu/soc_eu_v1.h"

static inline void soc_eu_eventMask_set(unsigned int reg, unsigned int value) {
  ARCHI_WRITE(ARCHI_SOC_EU_ADDR, reg, value);
1c0018ac:	54fd                	li	s1,-1
1c0018ae:	1a1067b7          	lui	a5,0x1a106
1c0018b2:	0097a223          	sw	s1,4(a5) # 1a106004 <__l1_end+0xa105fe4>
1c0018b6:	0097a423          	sw	s1,8(a5)
  rt_irq_set_handler(ARCHI_FC_EVT_SOC_EVT, __rt_fc_socevents_handler);
1c0018ba:	1c0005b7          	lui	a1,0x1c000
1c0018be:	3f458593          	addi	a1,a1,1012 # 1c0003f4 <__rt_fc_socevents_handler>
1c0018c2:	456d                	li	a0,27
1c0018c4:	2a35                	jal	1c001a00 <rt_irq_set_handler>
  ARCHI_WRITE(base, EU_CORE_MASK_IRQ_OR, irqMask);
1c0018c6:	080007b7          	lui	a5,0x8000
1c0018ca:	00204737          	lui	a4,0x204
1c0018ce:	00f72a23          	sw	a5,20(a4) # 204014 <__L2+0x184014>
  ARCHI_WRITE(ARCHI_EU_DEMUX_ADDR, EU_CORE_MASK_OR, evtMask);
1c0018d2:	00f72423          	sw	a5,8(a4)
  __rt_pmu_init();
1c0018d6:	1f6010ef          	jal	ra,1c002acc <__rt_pmu_init>
  __rt_freq_init();
1c0018da:	655000ef          	jal	ra,1c00272e <__rt_freq_init>
1c0018de:	002017b7          	lui	a5,0x201
1c0018e2:	40078793          	addi	a5,a5,1024 # 201400 <__L2+0x181400>
  pulp_write32(ARCHI_CLUSTER_PERIPHERALS_GLOBAL_ADDR(cid) + ARCHI_ICACHE_CTRL_OFFSET, 0xFFFFFFFF);
}

static inline void icache_enable(unsigned int base)
{
  pulp_write32(base, 0xFFFFFFFF);
1c0018e6:	c384                	sw	s1,0(a5)
  asm("csrr %0, 0x014" : "=r" (hart_id) : );
1c0018e8:	01402473          	csrr	s0,uhartid
1c0018ec:	1c0054b7          	lui	s1,0x1c005
  return (hart_id >> 5) & 0x3f;
1c0018f0:	8415                	srai	s0,s0,0x5
  __rt_utils_init();
1c0018f2:	24e5                	jal	1c001bda <__rt_utils_init>
1c0018f4:	f2643433          	p.bclr	s0,s0,25,6
  __rt_allocs_init();
1c0018f8:	147000ef          	jal	ra,1c00223e <__rt_allocs_init>
1c0018fc:	b0c48493          	addi	s1,s1,-1268 # 1c004b0c <ctor_list+0x4>
  __rt_event_sched_init();
1c001900:	001000ef          	jal	ra,1c002100 <__rt_event_sched_init>
  __rt_padframe_init();
1c001904:	0bb010ef          	jal	ra,1c0031be <__rt_padframe_init>
  for(fpp = ctor_list+1;  *fpp != 0;  ++fpp) {
1c001908:	0044a78b          	p.lw	a5,4(s1!)
1c00190c:	ebad                	bnez	a5,1c00197e <__rt_init+0x110>
  return __builtin_pulp_read_then_spr_bit_set(reg, val);
1c00190e:	300467f3          	csrrsi	a5,mstatus,8
  if (__rt_cbsys_exec(RT_CBSYS_START)) goto error;
1c001912:	4501                	li	a0,0
1c001914:	2c59                	jal	1c001baa <__rt_cbsys_exec>
1c001916:	e539                	bnez	a0,1c001964 <__rt_init+0xf6>
  asm("csrr %0, 0x014" : "=r" (hart_id) : );
1c001918:	014027f3          	csrr	a5,uhartid
  return (hart_id >> 5) & 0x3f;
1c00191c:	8795                	srai	a5,a5,0x5
1c00191e:	f267b7b3          	p.bclr	a5,a5,25,6
        exit(retval);
      }
    }
    else
      return cluster_master_start(NULL);
  } else if (!rt_is_fc()) {
1c001922:	02000713          	li	a4,32
1c001926:	0ae78263          	beq	a5,a4,1c0019ca <__rt_init+0x15c>
    rt_cluster_mount(1, cid, 0, NULL);
1c00192a:	4681                	li	a3,0
1c00192c:	4601                	li	a2,0
1c00192e:	4581                	li	a1,0
1c001930:	4505                	li	a0,1
  if (rt_cluster_id() != cid)
1c001932:	cba1                	beqz	a5,1c001982 <__rt_init+0x114>
    rt_cluster_mount(1, cid, 0, NULL);
1c001934:	6ca010ef          	jal	ra,1c002ffe <rt_cluster_mount>
    void *stacks = rt_alloc(RT_ALLOC_CL_DATA+cid, 0x800*rt_nb_active_pe());
1c001938:	6591                	lui	a1,0x4
1c00193a:	4509                	li	a0,2
1c00193c:	08b000ef          	jal	ra,1c0021c6 <rt_alloc>
1c001940:	872a                	mv	a4,a0
    if (stacks == NULL) return -1;
1c001942:	c10d                	beqz	a0,1c001964 <__rt_init+0xf6>
    if (rt_cluster_call(NULL, cid, cluster_start, NULL, stacks, 0x800, 0x800, rt_nb_active_pe(), event)) return -1;
1c001944:	6805                	lui	a6,0x1
1c001946:	80080813          	addi	a6,a6,-2048 # 800 <__rt_stack_size>
1c00194a:	1c002637          	lui	a2,0x1c002
1c00194e:	c002                	sw	zero,0(sp)
1c001950:	48a1                	li	a7,8
1c001952:	87c2                	mv	a5,a6
1c001954:	4681                	li	a3,0
1c001956:	84860613          	addi	a2,a2,-1976 # 1c001848 <cluster_start>
1c00195a:	4581                	li	a1,0
1c00195c:	4501                	li	a0,0
1c00195e:	610010ef          	jal	ra,1c002f6e <rt_cluster_call>
1c001962:	c525                	beqz	a0,1c0019ca <__rt_init+0x15c>
  rt_fatal("There was an error during runtime initialization\n");
1c001964:	1c005537          	lui	a0,0x1c005
  asm("csrr %0, 0x014" : "=r" (hart_id) : );
1c001968:	01402673          	csrr	a2,uhartid
1c00196c:	85a2                	mv	a1,s0
1c00196e:	f4563633          	p.bclr	a2,a2,26,5
1c001972:	d0c50513          	addi	a0,a0,-756 # 1c004d0c <__clz_tab+0x100>
1c001976:	0c2020ef          	jal	ra,1c003a38 <printf>
1c00197a:	02a020ef          	jal	ra,1c0039a4 <abort>
    (**fpp)();
1c00197e:	9782                	jalr	a5
1c001980:	b761                	j	1c001908 <__rt_init+0x9a>
    rt_cluster_mount(1, cid, 0, NULL);
1c001982:	67c010ef          	jal	ra,1c002ffe <rt_cluster_mount>
    void *stacks = rt_alloc(RT_ALLOC_CL_DATA+cid, 0x800*(rt_nb_active_pe()-1));
1c001986:	6591                	lui	a1,0x4
1c001988:	80058593          	addi	a1,a1,-2048 # 3800 <__rt_stack_size+0x3000>
1c00198c:	4509                	li	a0,2
1c00198e:	039000ef          	jal	ra,1c0021c6 <rt_alloc>
    if (stacks == NULL) return -1;
1c001992:	d969                	beqz	a0,1c001964 <__rt_init+0xf6>
  IP_WRITE(ARCHI_EU_DEMUX_ADDR, EU_DISPATCH_DEMUX_OFFSET + EU_DISPATCH_TEAM_CONFIG, value);
1c001994:	00204737          	lui	a4,0x204
1c001998:	0ff00793          	li	a5,255
1c00199c:	08f72223          	sw	a5,132(a4) # 204084 <__L2+0x184084>
    eu_dispatch_push((unsigned int)__rt_set_slave_stack | 1);
1c0019a0:	1c0057b7          	lui	a5,0x1c005
1c0019a4:	a5078793          	addi	a5,a5,-1456 # 1c004a50 <__rt_set_slave_stack>
1c0019a8:	c007c7b3          	p.bset	a5,a5,0,0
  IP_WRITE_PTR(ARCHI_EU_DEMUX_ADDR, EU_DISPATCH_DEMUX_OFFSET + EU_DISPATCH_FIFO_ACCESS, value);
1c0019ac:	08f72023          	sw	a5,128(a4)
1c0019b0:	6785                	lui	a5,0x1
1c0019b2:	80078793          	addi	a5,a5,-2048 # 800 <__rt_stack_size>
1c0019b6:	08f72023          	sw	a5,128(a4)
1c0019ba:	08a72023          	sw	a0,128(a4)
}
1c0019be:	4462                	lw	s0,24(sp)
1c0019c0:	40f2                	lw	ra,28(sp)
1c0019c2:	44d2                	lw	s1,20(sp)
    cluster_start(NULL);
1c0019c4:	4501                	li	a0,0
}
1c0019c6:	6105                	addi	sp,sp,32
    cluster_start(NULL);
1c0019c8:	b541                	j	1c001848 <cluster_start>
}
1c0019ca:	40f2                	lw	ra,28(sp)
1c0019cc:	4462                	lw	s0,24(sp)
1c0019ce:	44d2                	lw	s1,20(sp)
1c0019d0:	6105                	addi	sp,sp,32
1c0019d2:	8082                	ret

1c0019d4 <__rt_deinit>:
{
1c0019d4:	1141                	addi	sp,sp,-16
1c0019d6:	c606                	sw	ra,12(sp)
1c0019d8:	c422                	sw	s0,8(sp)
}

static inline void cpu_stack_check_disable()
{
  asm volatile ("csrwi 0x7D0, 0" :: );
1c0019da:	7d005073          	csrwi	0x7d0,0
  __rt_cbsys_exec(RT_CBSYS_STOP);
1c0019de:	4505                	li	a0,1
1c0019e0:	1c005437          	lui	s0,0x1c005
1c0019e4:	22d9                	jal	1c001baa <__rt_cbsys_exec>
1c0019e6:	b4840413          	addi	s0,s0,-1208 # 1c004b48 <dtor_list+0x4>
  for(fpp = dtor_list + 1;  *fpp != 0;  ++fpp) (**fpp)();
1c0019ea:	0044278b          	p.lw	a5,4(s0!)
1c0019ee:	e789                	bnez	a5,1c0019f8 <__rt_deinit+0x24>
}
1c0019f0:	40b2                	lw	ra,12(sp)
1c0019f2:	4422                	lw	s0,8(sp)
1c0019f4:	0141                	addi	sp,sp,16
1c0019f6:	8082                	ret
  for(fpp = dtor_list + 1;  *fpp != 0;  ++fpp) (**fpp)();
1c0019f8:	9782                	jalr	a5
1c0019fa:	bfc5                	j	1c0019ea <__rt_deinit+0x16>

1c0019fc <pi_open_from_conf>:
#endif


void pi_open_from_conf(struct pi_device *device, void *conf)
{
  device->config = conf;
1c0019fc:	c14c                	sw	a1,4(a0)
}
1c0019fe:	8082                	ret

1c001a00 <rt_irq_set_handler>:
  asm("csrr %0, 0x014" : "=r" (hart_id) : );
1c001a00:	014027f3          	csrr	a5,uhartid
  return hal_spr_read(0x305) & ~1;
#else
#if defined(APB_SOC_VERSION) && APB_SOC_VERSION == 1
  return ARCHI_L2_ADDR;
#else
  if (rt_is_fc()) {
1c001a04:	02000713          	li	a4,32
  return (hart_id >> 5) & 0x3f;
1c001a08:	ca5797b3          	p.extractu	a5,a5,5,5
1c001a0c:	02e79c63          	bne	a5,a4,1c001a44 <rt_irq_set_handler+0x44>
#if defined(ARCHI_CORE_HAS_SECURITY) && !defined(ARCHI_CORE_HAS_1_10)
    return __builtin_pulp_spr_read(SR_MTVEC);
1c001a10:	30502773          	csrr	a4,mtvec
  irq -= 16;
#endif

  unsigned int base = __rt_get_fc_vector_base();

  unsigned int jmpAddr = base + 0x4 * irq;
1c001a14:	050a                	slli	a0,a0,0x2
  unsigned int S = ((unsigned int) ItHandler - (ItBaseAddr+ItIndex*4));
1c001a16:	8d89                	sub	a1,a1,a0
1c001a18:	8d99                	sub	a1,a1,a4
  R = __BITINSERT(R, __BITEXTRACT(S,  1, 20),  1, 31);
1c001a1a:	c14586b3          	p.extract	a3,a1,0,20
1c001a1e:	06f00793          	li	a5,111
1c001a22:	c1f6a7b3          	p.insert	a5,a3,0,31
  R = __BITINSERT(R, __BITEXTRACT(S, 10,  1), 10, 21);
1c001a26:	d21586b3          	p.extract	a3,a1,9,1
1c001a2a:	d356a7b3          	p.insert	a5,a3,9,21
  R = __BITINSERT(R, __BITEXTRACT(S,  1, 11),  1, 20);
1c001a2e:	c0b586b3          	p.extract	a3,a1,0,11
1c001a32:	c146a7b3          	p.insert	a5,a3,0,20
  R = __BITINSERT(R, __BITEXTRACT(S,  8, 12),  8, 12);
1c001a36:	cec585b3          	p.extract	a1,a1,7,12
1c001a3a:	cec5a7b3          	p.insert	a5,a1,7,12

  *(volatile unsigned int *)jmpAddr = __rt_get_itvec(base, irq, (unsigned int)handler);
1c001a3e:	00f56723          	p.sw	a5,a4(a0)

#if defined(PLP_FC_HAS_ICACHE)
  flush_all_icache_banks_common(plp_icache_fc_base());
#endif

}
1c001a42:	8082                	ret
static inline void plp_ctrl_core_bootaddr_set_remote(int cid, int core, unsigned int bootAddr) {
  pulp_write32(ARCHI_CLUSTER_PERIPHERALS_GLOBAL_ADDR(cid) + ARCHI_CLUSTER_CTRL_OFFSET + 0x40 + core*4, bootAddr);
}

static inline unsigned int plp_ctrl_bootaddr_get() {
  return pulp_read32(ARCHI_CLUSTER_CTRL_ADDR + 0x40);
1c001a44:	002007b7          	lui	a5,0x200
1c001a48:	43b8                	lw	a4,64(a5)
1c001a4a:	b7e9                	j	1c001a14 <rt_irq_set_handler+0x14>

1c001a4c <illegal_insn_handler_c>:
#include <stdlib.h>

void __attribute__((weak)) illegal_insn_handler_c()
{

}
1c001a4c:	8082                	ret

1c001a4e <__rt_handle_illegal_instr>:


extern RT_FC_GLOBAL_DATA unsigned int __rt_debug_config;
extern RT_FC_GLOBAL_DATA unsigned int __rt_debug_config_trace;

static inline unsigned int rt_debug_config() { return __rt_debug_config; }
1c001a4e:	1b0017b7          	lui	a5,0x1b001

static inline unsigned int rt_debug_config_trace() { return __rt_debug_config_trace; }

static inline int rt_debug_config_warnings() {
  return ARCHI_REG_FIELD_GET(rt_debug_config(), RT_DEBUG_WARNING_BIT, 1);
1c001a52:	b9c7a703          	lw	a4,-1124(a5) # 1b000b9c <__rt_debug_config>

void __rt_handle_illegal_instr()
{
1c001a56:	1141                	addi	sp,sp,-16
1c001a58:	c422                	sw	s0,8(sp)
1c001a5a:	c606                	sw	ra,12(sp)
1c001a5c:	fc173733          	p.bclr	a4,a4,30,1
1c001a60:	843e                	mv	s0,a5
#ifdef __riscv__
  unsigned int mepc = hal_mepc_read();
  rt_warning("Reached illegal instruction (PC: 0x%x, opcode: 0x%x\n", mepc, *(int *)mepc);
1c001a62:	c315                	beqz	a4,1c001a86 <__rt_handle_illegal_instr+0x38>
1c001a64:	341026f3          	csrr	a3,mepc
  asm("csrr %0, 0x014" : "=r" (hart_id) : );
1c001a68:	01402673          	csrr	a2,uhartid
1c001a6c:	1c005537          	lui	a0,0x1c005
1c001a70:	4298                	lw	a4,0(a3)
  return (hart_id >> 5) & 0x3f;
1c001a72:	40565593          	srai	a1,a2,0x5
1c001a76:	f265b5b3          	p.bclr	a1,a1,25,6
1c001a7a:	f4563633          	p.bclr	a2,a2,26,5
1c001a7e:	d6450513          	addi	a0,a0,-668 # 1c004d64 <__clz_tab+0x158>
1c001a82:	7b7010ef          	jal	ra,1c003a38 <printf>
}

static inline int rt_debug_config_werror() {
  return ARCHI_REG_FIELD_GET(rt_debug_config(), RT_DEBUG_WERROR_BIT, 1);
1c001a86:	b9c42783          	lw	a5,-1124(s0)
1c001a8a:	c01797b3          	p.extractu	a5,a5,0,1
1c001a8e:	c399                	beqz	a5,1c001a94 <__rt_handle_illegal_instr+0x46>
1c001a90:	715010ef          	jal	ra,1c0039a4 <abort>
  illegal_insn_handler_c();
#endif
}
1c001a94:	4422                	lw	s0,8(sp)
1c001a96:	40b2                	lw	ra,12(sp)
1c001a98:	0141                	addi	sp,sp,16
  illegal_insn_handler_c();
1c001a9a:	fb3ff06f          	j	1c001a4c <illegal_insn_handler_c>

1c001a9e <__rt_irq_init>:
  ARCHI_WRITE(ARCHI_EU_DEMUX_ADDR, EU_CORE_MASK_IRQ_AND, irqMask);
1c001a9e:	57fd                	li	a5,-1
1c001aa0:	00204737          	lui	a4,0x204
1c001aa4:	00f72823          	sw	a5,16(a4) # 204010 <__L2+0x184010>
  else eu_irq_maskClr(mask);
#elif defined(ITC_VERSION)
  hal_itc_enable_clr(mask);
#elif defined(EU_VERSION)
  eu_irq_maskClr(mask);
  if (hal_is_fc()) eu_evt_maskClr(mask);
1c001aa8:	02000713          	li	a4,32
  asm("csrr %0, 0x014" : "=r" (hart_id) : );
1c001aac:	014027f3          	csrr	a5,uhartid
  return (hart_id >> 5) & 0x3f;
1c001ab0:	ca5797b3          	p.extractu	a5,a5,5,5
1c001ab4:	00e79763          	bne	a5,a4,1c001ac2 <__rt_irq_init+0x24>
  ARCHI_WRITE(ARCHI_EU_DEMUX_ADDR, EU_CORE_MASK_AND, evtMask);
1c001ab8:	57fd                	li	a5,-1
1c001aba:	00204737          	lui	a4,0x204
1c001abe:	00f72223          	sw	a5,4(a4) # 204004 <__L2+0x184004>
  asm("csrr %0, 0x014" : "=r" (hart_id) : );
1c001ac2:	014027f3          	csrr	a5,uhartid
#if defined(ARCHI_CORE_RISCV_ITC)
  hal_spr_write(0x305, base);
#else
#if defined(APB_SOC_VERSION) && APB_SOC_VERSION == 1
#else
  if (rt_is_fc()) {
1c001ac6:	02000713          	li	a4,32
  return (hart_id >> 5) & 0x3f;
1c001aca:	ca5797b3          	p.extractu	a5,a5,5,5
1c001ace:	00e79963          	bne	a5,a4,1c001ae0 <__rt_irq_init+0x42>
#if defined(ARCHI_CORE_HAS_SECURITY)
    __builtin_pulp_spr_write(SR_MTVEC, base);
1c001ad2:	1c0007b7          	lui	a5,0x1c000
1c001ad6:	00078793          	mv	a5,a5
1c001ada:	30579073          	csrw	mtvec,a5
1c001ade:	8082                	ret
  pulp_write32(ARCHI_CLUSTER_CTRL_ADDR + 0x40, bootAddr);
1c001ae0:	1c0007b7          	lui	a5,0x1c000
1c001ae4:	00200737          	lui	a4,0x200
1c001ae8:	00078793          	mv	a5,a5
1c001aec:	c33c                	sw	a5,64(a4)
  rt_irq_mask_clr(-1);

  // As the FC code may not be at the beginning of the L2, set the
  // vector base to get proper interrupt handlers
  __rt_set_fc_vector_base((int)rt_irq_vector_base());
}
1c001aee:	8082                	ret

1c001af0 <__rt_fc_cluster_lock_req>:
      rt_free(RT_ALLOC_FC_RET_DATA, (void *)cbsys, sizeof(rt_cbsys_t));     
      return;
    }

    prev = cbsys;
    cbsys = cbsys->next;
1c001af0:	300476f3          	csrrci	a3,mstatus,8
1c001af4:	08a54703          	lbu	a4,138(a0)
1c001af8:	411c                	lw	a5,0(a0)
1c001afa:	c321                	beqz	a4,1c001b3a <__rt_fc_cluster_lock_req+0x4a>
1c001afc:	4398                	lw	a4,0(a5)
1c001afe:	cf09                	beqz	a4,1c001b18 <__rt_fc_cluster_lock_req+0x28>
1c001b00:	43d8                	lw	a4,4(a5)
1c001b02:	cb09                	beqz	a4,1c001b14 <__rt_fc_cluster_lock_req+0x24>
1c001b04:	4798                	lw	a4,8(a5)
1c001b06:	c348                	sw	a0,4(a4)
1c001b08:	c788                	sw	a0,8(a5)
1c001b0a:	00052223          	sw	zero,4(a0)
1c001b0e:	30069073          	csrw	mstatus,a3
1c001b12:	8082                	ret
1c001b14:	c3c8                	sw	a0,4(a5)
1c001b16:	bfcd                	j	1c001b08 <__rt_fc_cluster_lock_req+0x18>
1c001b18:	4705                	li	a4,1
1c001b1a:	08e50423          	sb	a4,136(a0)
1c001b1e:	4705                	li	a4,1
1c001b20:	c398                	sw	a4,0(a5)
1c001b22:	08954783          	lbu	a5,137(a0)
1c001b26:	00201737          	lui	a4,0x201
1c001b2a:	e0470713          	addi	a4,a4,-508 # 200e04 <__L2+0x180e04>
1c001b2e:	04078793          	addi	a5,a5,64 # 1c000040 <__irq_vector_base+0x40>
1c001b32:	07da                	slli	a5,a5,0x16
1c001b34:	0007e723          	p.sw	zero,a4(a5)
1c001b38:	bfd9                	j	1c001b0e <__rt_fc_cluster_lock_req+0x1e>
1c001b3a:	43d8                	lw	a4,4(a5)
1c001b3c:	e719                	bnez	a4,1c001b4a <__rt_fc_cluster_lock_req+0x5a>
1c001b3e:	0007a023          	sw	zero,0(a5)
1c001b42:	4785                	li	a5,1
1c001b44:	08f50423          	sb	a5,136(a0)
1c001b48:	bfe9                	j	1c001b22 <__rt_fc_cluster_lock_req+0x32>
1c001b4a:	4350                	lw	a2,4(a4)
1c001b4c:	c3d0                	sw	a2,4(a5)
1c001b4e:	4785                	li	a5,1
1c001b50:	08f70423          	sb	a5,136(a4)
1c001b54:	08974783          	lbu	a5,137(a4)
1c001b58:	00201737          	lui	a4,0x201
1c001b5c:	e0470713          	addi	a4,a4,-508 # 200e04 <__L2+0x180e04>
1c001b60:	04078793          	addi	a5,a5,64
1c001b64:	07da                	slli	a5,a5,0x16
1c001b66:	0007e723          	p.sw	zero,a4(a5)
1c001b6a:	bfe1                	j	1c001b42 <__rt_fc_cluster_lock_req+0x52>

1c001b6c <__rt_cbsys_add>:
  }
}

int __rt_cbsys_add(__rt_cbsys_e cbsys_id, int (*cb)(void *), void *cb_arg)
{
1c001b6c:	1101                	addi	sp,sp,-32
1c001b6e:	cc22                	sw	s0,24(sp)
1c001b70:	ca26                	sw	s1,20(sp)
1c001b72:	842a                	mv	s0,a0
1c001b74:	84ae                	mv	s1,a1
  rt_cbsys_t *cbsys = (rt_cbsys_t *)rt_alloc(RT_ALLOC_FC_RET_DATA, sizeof(rt_cbsys_t));
1c001b76:	4501                	li	a0,0
1c001b78:	45b1                	li	a1,12
1c001b7a:	c632                	sw	a2,12(sp)
{
1c001b7c:	ce06                	sw	ra,28(sp)
  rt_cbsys_t *cbsys = (rt_cbsys_t *)rt_alloc(RT_ALLOC_FC_RET_DATA, sizeof(rt_cbsys_t));
1c001b7e:	25a1                	jal	1c0021c6 <rt_alloc>
  if (cbsys == NULL) return -1;
1c001b80:	4632                	lw	a2,12(sp)
1c001b82:	c115                	beqz	a0,1c001ba6 <__rt_cbsys_add+0x3a>

  cbsys->callback = cb;
  cbsys->arg = cb_arg;
  cbsys->next = cbsys_first[cbsys_id];
1c001b84:	1b0017b7          	lui	a5,0x1b001
1c001b88:	040a                	slli	s0,s0,0x2
1c001b8a:	ba078793          	addi	a5,a5,-1120 # 1b000ba0 <cbsys_first>
1c001b8e:	97a2                	add	a5,a5,s0
1c001b90:	4398                	lw	a4,0(a5)
  cbsys->callback = cb;
1c001b92:	c104                	sw	s1,0(a0)
  cbsys->arg = cb_arg;
1c001b94:	c150                	sw	a2,4(a0)
  cbsys->next = cbsys_first[cbsys_id];
1c001b96:	c518                	sw	a4,8(a0)
  cbsys_first[cbsys_id] = cbsys;
1c001b98:	c388                	sw	a0,0(a5)

  return 0;
1c001b9a:	4501                	li	a0,0
}
1c001b9c:	40f2                	lw	ra,28(sp)
1c001b9e:	4462                	lw	s0,24(sp)
1c001ba0:	44d2                	lw	s1,20(sp)
1c001ba2:	6105                	addi	sp,sp,32
1c001ba4:	8082                	ret
  if (cbsys == NULL) return -1;
1c001ba6:	557d                	li	a0,-1
1c001ba8:	bfd5                	j	1c001b9c <__rt_cbsys_add+0x30>

1c001baa <__rt_cbsys_exec>:


int __rt_cbsys_exec(__rt_cbsys_e cbsys_id)
{
1c001baa:	1141                	addi	sp,sp,-16
1c001bac:	c422                	sw	s0,8(sp)
  rt_cbsys_t *cbsys = cbsys_first[cbsys_id];
1c001bae:	1b001437          	lui	s0,0x1b001
1c001bb2:	050a                	slli	a0,a0,0x2
1c001bb4:	ba040413          	addi	s0,s0,-1120 # 1b000ba0 <cbsys_first>
1c001bb8:	20a47403          	p.lw	s0,a0(s0)
{
1c001bbc:	c606                	sw	ra,12(sp)
  while (cbsys)
1c001bbe:	e411                	bnez	s0,1c001bca <__rt_cbsys_exec+0x20>
  {
    if (cbsys->callback(cbsys->arg)) return -1;
    cbsys = cbsys->next;
  }

  return 0;
1c001bc0:	4501                	li	a0,0
}
1c001bc2:	40b2                	lw	ra,12(sp)
1c001bc4:	4422                	lw	s0,8(sp)
1c001bc6:	0141                	addi	sp,sp,16
1c001bc8:	8082                	ret
    if (cbsys->callback(cbsys->arg)) return -1;
1c001bca:	401c                	lw	a5,0(s0)
1c001bcc:	4048                	lw	a0,4(s0)
1c001bce:	9782                	jalr	a5
1c001bd0:	e119                	bnez	a0,1c001bd6 <__rt_cbsys_exec+0x2c>
    cbsys = cbsys->next;
1c001bd2:	4400                	lw	s0,8(s0)
1c001bd4:	b7ed                	j	1c001bbe <__rt_cbsys_exec+0x14>
    if (cbsys->callback(cbsys->arg)) return -1;
1c001bd6:	557d                	li	a0,-1
1c001bd8:	b7ed                	j	1c001bc2 <__rt_cbsys_exec+0x18>

1c001bda <__rt_utils_init>:

RT_FC_BOOT_CODE void __rt_utils_init()
{
  for (int i=0; i<RT_CBSYS_NB; i++)
  {
    cbsys_first[i] = NULL;
1c001bda:	1b0017b7          	lui	a5,0x1b001
1c001bde:	ba078793          	addi	a5,a5,-1120 # 1b000ba0 <cbsys_first>
1c001be2:	0007a023          	sw	zero,0(a5)
1c001be6:	0007a223          	sw	zero,4(a5)
1c001bea:	0007a423          	sw	zero,8(a5)
1c001bee:	0007a623          	sw	zero,12(a5)
1c001bf2:	0007a823          	sw	zero,16(a5)
1c001bf6:	0007aa23          	sw	zero,20(a5)
  }
}
1c001bfa:	8082                	ret

1c001bfc <__rt_fc_lock>:

void __rt_fc_lock(rt_fc_lock_t *lock)
{
1c001bfc:	1141                	addi	sp,sp,-16
1c001bfe:	c422                	sw	s0,8(sp)
1c001c00:	842a                	mv	s0,a0
1c001c02:	c606                	sw	ra,12(sp)
1c001c04:	c226                	sw	s1,4(sp)
1c001c06:	c04a                	sw	s2,0(sp)
  return __builtin_pulp_read_then_spr_bit_clr(reg, val);
1c001c08:	300474f3          	csrrci	s1,mstatus,8
#if defined(ARCHI_HAS_FC)
  int irq = rt_irq_disable();
  while(lock->locked)
1c001c0c:	401c                	lw	a5,0(s0)
1c001c0e:	eb99                	bnez	a5,1c001c24 <__rt_fc_lock+0x28>
  {
    //lock->fc_wait = __rt_thread_current;
    __rt_event_execute(rt_event_internal_sched(), 1);
  }
  lock->locked = 1;
1c001c10:	4785                	li	a5,1
1c001c12:	c01c                	sw	a5,0(s0)
  __builtin_pulp_spr_write(reg, val);
1c001c14:	30049073          	csrw	mstatus,s1
  while (rt_tas_lock_32((uint32_t)&lock->lock) == -1)
  {

  }
#endif
}
1c001c18:	40b2                	lw	ra,12(sp)
1c001c1a:	4422                	lw	s0,8(sp)
1c001c1c:	4492                	lw	s1,4(sp)
1c001c1e:	4902                	lw	s2,0(sp)
1c001c20:	0141                	addi	sp,sp,16
1c001c22:	8082                	ret
    __rt_event_execute(rt_event_internal_sched(), 1);
1c001c24:	4585                	li	a1,1
1c001c26:	01c00513          	li	a0,28
1c001c2a:	2905                	jal	1c00205a <__rt_event_execute>
1c001c2c:	b7c5                	j	1c001c0c <__rt_fc_lock+0x10>

1c001c2e <__rt_fc_unlock>:
  return __builtin_pulp_read_then_spr_bit_clr(reg, val);
1c001c2e:	300476f3          	csrrci	a3,mstatus,8

static int __rt_fc_unlock_to_cluster(rt_fc_lock_t *lock)
{
#if defined(ARCHI_HAS_CLUSTER)
  if (lock->waiting) {
1c001c32:	415c                	lw	a5,4(a0)
1c001c34:	e791                	bnez	a5,1c001c40 <__rt_fc_unlock+0x12>
{
#if defined(ARCHI_HAS_FC)
  int irq = rt_irq_disable();
  if (!__rt_fc_unlock_to_cluster(lock))
  {
    lock->locked = 0;    
1c001c36:	00052023          	sw	zero,0(a0)
  __builtin_pulp_spr_write(reg, val);
1c001c3a:	30069073          	csrw	mstatus,a3
  }
  rt_irq_restore(irq);
#else
  rt_tas_unlock_32((uint32_t)&lock->lock, 0);
#endif
}
1c001c3e:	8082                	ret
    lock->waiting = req->next;
1c001c40:	43d8                	lw	a4,4(a5)
1c001c42:	c158                	sw	a4,4(a0)
    req->done = 1;
1c001c44:	4705                	li	a4,1
1c001c46:	08e78423          	sb	a4,136(a5)
    __rt_cluster_notif_req_done(req->cid);
1c001c4a:	0897c783          	lbu	a5,137(a5)
  pulp_write32(evtAddr, coreSet);
1c001c4e:	00201737          	lui	a4,0x201
1c001c52:	e0470713          	addi	a4,a4,-508 # 200e04 <__L2+0x180e04>
  return ARCHI_CLUSTER_PERIPHERALS_GLOBAL_ADDR(cluster) + ARCHI_EU_OFFSET + EU_SW_EVENTS_AREA_BASE + EU_CORE_TRIGG_SW_EVENT + (event << 2);
1c001c56:	04078793          	addi	a5,a5,64
1c001c5a:	07da                	slli	a5,a5,0x16
  pulp_write32(evtAddr, coreSet);
1c001c5c:	0007e723          	p.sw	zero,a4(a5)
1c001c60:	bfe9                	j	1c001c3a <__rt_fc_unlock+0xc>

1c001c62 <__rt_fc_cluster_lock>:
  asm("csrr %0, 0x014" : "=r" (hart_id) : );
1c001c62:	014027f3          	csrr	a5,uhartid
  return (hart_id >> 5) & 0x3f;
1c001c66:	8795                	srai	a5,a5,0x5
1c001c68:	f267b7b3          	p.bclr	a5,a5,25,6
#if defined(ARCHI_HAS_FC)

void __rt_fc_cluster_lock(rt_fc_lock_t *lock, rt_fc_lock_req_t *req)
{
  req->lock = lock;
  req->cid = rt_cluster_id();
1c001c6c:	08f584a3          	sb	a5,137(a1)
  req->done = 0;
  req->req_lock = 1;
1c001c70:	4785                	li	a5,1
1c001c72:	08f58523          	sb	a5,138(a1)
}

static inline rt_event_t *__rt_init_event(rt_event_t *event, rt_event_sched_t *sched, void (*callback)(void *), void *arg)
{
  __rt_event_min_init(event);
  event->arg[0] = (uintptr_t)callback;
1c001c76:	1c0027b7          	lui	a5,0x1c002
1c001c7a:	af078793          	addi	a5,a5,-1296 # 1c001af0 <__rt_fc_cluster_lock_req>
  req->lock = lock;
1c001c7e:	c188                	sw	a0,0(a1)
  req->done = 0;
1c001c80:	08058423          	sb	zero,136(a1)
  event->implem.pending = 0;
1c001c84:	0205a623          	sw	zero,44(a1)
  event->implem.keep = 0;
1c001c88:	0205a823          	sw	zero,48(a1)
  event->arg[0] = (uintptr_t)callback;
1c001c8c:	c5dc                	sw	a5,12(a1)
  event->arg[1] = (uintptr_t)arg;
1c001c8e:	c98c                	sw	a1,16(a1)
  __rt_init_event(&req->event, __rt_cluster_sched_get(), __rt_fc_cluster_lock_req, (void *)req);
1c001c90:	05a1                	addi	a1,a1,8

// This function will push an event from cluster to FC and the event callback
// will be executed directly from within the interrupt handler
static inline void __rt_cluster_push_fc_irq_event(rt_event_t *event)
{
  __rt_cluster_push_fc_event((rt_event_t *)(((unsigned int)event) | 0x1));
1c001c92:	c005c533          	p.bset	a0,a1,0,0
1c001c96:	1f00106f          	j	1c002e86 <__rt_cluster_push_fc_event>

1c001c9a <__rt_fc_cluster_unlock>:
  asm("csrr %0, 0x014" : "=r" (hart_id) : );
1c001c9a:	014027f3          	csrr	a5,uhartid
  return (hart_id >> 5) & 0x3f;
1c001c9e:	8795                	srai	a5,a5,0x5
1c001ca0:	f267b7b3          	p.bclr	a5,a5,25,6
}

void __rt_fc_cluster_unlock(rt_fc_lock_t *lock, rt_fc_lock_req_t *req)
{
  req->lock = lock;
  req->cid = rt_cluster_id();
1c001ca4:	08f584a3          	sb	a5,137(a1)
  event->arg[0] = (uintptr_t)callback;
1c001ca8:	1c0027b7          	lui	a5,0x1c002
1c001cac:	af078793          	addi	a5,a5,-1296 # 1c001af0 <__rt_fc_cluster_lock_req>
  req->lock = lock;
1c001cb0:	c188                	sw	a0,0(a1)
  req->done = 0;
1c001cb2:	08058423          	sb	zero,136(a1)
  req->req_lock = 0;
1c001cb6:	08058523          	sb	zero,138(a1)
  event->implem.pending = 0;
1c001cba:	0205a623          	sw	zero,44(a1)
  event->implem.keep = 0;
1c001cbe:	0205a823          	sw	zero,48(a1)
  event->arg[0] = (uintptr_t)callback;
1c001cc2:	c5dc                	sw	a5,12(a1)
  event->arg[1] = (uintptr_t)arg;
1c001cc4:	c98c                	sw	a1,16(a1)
  __rt_init_event(&req->event, __rt_cluster_sched_get(), __rt_fc_cluster_lock_req, (void *)req);
1c001cc6:	05a1                	addi	a1,a1,8
1c001cc8:	c005c533          	p.bset	a0,a1,0,0
1c001ccc:	1ba0106f          	j	1c002e86 <__rt_cluster_push_fc_event>

1c001cd0 <__rt_event_enqueue>:

    __rt_wait_event_check(event, call_event);
  }

  rt_irq_restore(irq);
}
1c001cd0:	01c02683          	lw	a3,28(zero) # 1c <_l1_preload_size>
1c001cd4:	00052023          	sw	zero,0(a0)
1c001cd8:	01c00713          	li	a4,28
1c001cdc:	c689                	beqz	a3,1c001ce6 <__rt_event_enqueue+0x16>
1c001cde:	435c                	lw	a5,4(a4)
1c001ce0:	c388                	sw	a0,0(a5)
1c001ce2:	c348                	sw	a0,4(a4)
1c001ce4:	8082                	ret
1c001ce6:	00a02e23          	sw	a0,28(zero) # 1c <_l1_preload_size>
1c001cea:	bfe5                	j	1c001ce2 <__rt_event_enqueue+0x12>

1c001cec <__rt_bridge_check_bridge_req.part.5>:
1c001cec:	1c005737          	lui	a4,0x1c005
1c001cf0:	fd070793          	addi	a5,a4,-48 # 1c004fd0 <__hal_debug_struct>
1c001cf4:	0a47a783          	lw	a5,164(a5)
1c001cf8:	fd070713          	addi	a4,a4,-48
1c001cfc:	c789                	beqz	a5,1c001d06 <__rt_bridge_check_bridge_req.part.5+0x1a>
1c001cfe:	4f94                	lw	a3,24(a5)
1c001d00:	e681                	bnez	a3,1c001d08 <__rt_bridge_check_bridge_req.part.5+0x1c>
1c001d02:	0af72623          	sw	a5,172(a4)
1c001d06:	8082                	ret
1c001d08:	479c                	lw	a5,8(a5)
1c001d0a:	bfcd                	j	1c001cfc <__rt_bridge_check_bridge_req.part.5+0x10>

1c001d0c <__rt_bridge_wait>:
1c001d0c:	014027f3          	csrr	a5,uhartid
1c001d10:	02000713          	li	a4,32
1c001d14:	ca5797b3          	p.extractu	a5,a5,5,5
1c001d18:	02e79c63          	bne	a5,a4,1c001d50 <__rt_bridge_wait+0x44>
1c001d1c:	1141                	addi	sp,sp,-16
1c001d1e:	c422                	sw	s0,8(sp)
1c001d20:	1a106437          	lui	s0,0x1a106
1c001d24:	c606                	sw	ra,12(sp)
1c001d26:	00442783          	lw	a5,4(s0) # 1a106004 <__l1_end+0xa105fe4>
1c001d2a:	c187b7b3          	p.bclr	a5,a5,0,24
1c001d2e:	00f42223          	sw	a5,4(s0)
1c001d32:	4585                	li	a1,1
1c001d34:	03800513          	li	a0,56
1c001d38:	0f9000ef          	jal	ra,1c002630 <__rt_periph_wait_event>
1c001d3c:	00442783          	lw	a5,4(s0)
1c001d40:	c187c7b3          	p.bset	a5,a5,0,24
1c001d44:	00f42223          	sw	a5,4(s0)
1c001d48:	40b2                	lw	ra,12(sp)
1c001d4a:	4422                	lw	s0,8(sp)
1c001d4c:	0141                	addi	sp,sp,16
1c001d4e:	8082                	ret
1c001d50:	8082                	ret

1c001d52 <__rt_bridge_handle_notif>:
1c001d52:	1141                	addi	sp,sp,-16
1c001d54:	c422                	sw	s0,8(sp)
1c001d56:	1c005437          	lui	s0,0x1c005
1c001d5a:	fd040793          	addi	a5,s0,-48 # 1c004fd0 <__hal_debug_struct>
1c001d5e:	0a47a783          	lw	a5,164(a5)
1c001d62:	c606                	sw	ra,12(sp)
1c001d64:	c226                	sw	s1,4(sp)
1c001d66:	c04a                	sw	s2,0(sp)
1c001d68:	fd040413          	addi	s0,s0,-48
1c001d6c:	c399                	beqz	a5,1c001d72 <__rt_bridge_handle_notif+0x20>
1c001d6e:	4bd8                	lw	a4,20(a5)
1c001d70:	e30d                	bnez	a4,1c001d92 <__rt_bridge_handle_notif+0x40>
1c001d72:	0b442783          	lw	a5,180(s0)
1c001d76:	c789                	beqz	a5,1c001d80 <__rt_bridge_handle_notif+0x2e>
1c001d78:	43a8                	lw	a0,64(a5)
1c001d7a:	0a042a23          	sw	zero,180(s0)
1c001d7e:	3f89                	jal	1c001cd0 <__rt_event_enqueue>
1c001d80:	0ac42783          	lw	a5,172(s0)
1c001d84:	eb95                	bnez	a5,1c001db8 <__rt_bridge_handle_notif+0x66>
1c001d86:	4422                	lw	s0,8(sp)
1c001d88:	40b2                	lw	ra,12(sp)
1c001d8a:	4492                	lw	s1,4(sp)
1c001d8c:	4902                	lw	s2,0(sp)
1c001d8e:	0141                	addi	sp,sp,16
1c001d90:	bfb1                	j	1c001cec <__rt_bridge_check_bridge_req.part.5>
1c001d92:	4784                	lw	s1,8(a5)
1c001d94:	4fd8                	lw	a4,28(a5)
1c001d96:	0a942223          	sw	s1,164(s0)
1c001d9a:	cb01                	beqz	a4,1c001daa <__rt_bridge_handle_notif+0x58>
1c001d9c:	0b042703          	lw	a4,176(s0)
1c001da0:	c798                	sw	a4,8(a5)
1c001da2:	0af42823          	sw	a5,176(s0)
1c001da6:	87a6                	mv	a5,s1
1c001da8:	b7d1                	j	1c001d6c <__rt_bridge_handle_notif+0x1a>
1c001daa:	43a8                	lw	a0,64(a5)
1c001dac:	30047973          	csrrci	s2,mstatus,8
1c001db0:	3705                	jal	1c001cd0 <__rt_event_enqueue>
1c001db2:	30091073          	csrw	mstatus,s2
1c001db6:	bfc5                	j	1c001da6 <__rt_bridge_handle_notif+0x54>
1c001db8:	40b2                	lw	ra,12(sp)
1c001dba:	4422                	lw	s0,8(sp)
1c001dbc:	4492                	lw	s1,4(sp)
1c001dbe:	4902                	lw	s2,0(sp)
1c001dc0:	0141                	addi	sp,sp,16
1c001dc2:	8082                	ret

1c001dc4 <__rt_bridge_check_connection>:
1c001dc4:	1c0056b7          	lui	a3,0x1c005
1c001dc8:	fd068693          	addi	a3,a3,-48 # 1c004fd0 <__hal_debug_struct>
1c001dcc:	469c                	lw	a5,8(a3)
1c001dce:	ef9d                	bnez	a5,1c001e0c <__rt_bridge_check_connection+0x48>
1c001dd0:	1a1047b7          	lui	a5,0x1a104
1c001dd4:	07478793          	addi	a5,a5,116 # 1a104074 <__l1_end+0xa104054>
1c001dd8:	4398                	lw	a4,0(a5)
1c001dda:	8325                	srli	a4,a4,0x9
1c001ddc:	f8373733          	p.bclr	a4,a4,28,3
1c001de0:	02773663          	p.bneimm	a4,7,1c001e0c <__rt_bridge_check_connection+0x48>
1c001de4:	1141                	addi	sp,sp,-16
1c001de6:	c422                	sw	s0,8(sp)
1c001de8:	c606                	sw	ra,12(sp)
1c001dea:	4705                	li	a4,1
1c001dec:	c698                	sw	a4,8(a3)
1c001dee:	4709                	li	a4,2
1c001df0:	c398                	sw	a4,0(a5)
1c001df2:	843e                	mv	s0,a5
1c001df4:	401c                	lw	a5,0(s0)
1c001df6:	83a5                	srli	a5,a5,0x9
1c001df8:	f837b7b3          	p.bclr	a5,a5,28,3
1c001dfc:	0077a663          	p.beqimm	a5,7,1c001e08 <__rt_bridge_check_connection+0x44>
1c001e00:	40b2                	lw	ra,12(sp)
1c001e02:	4422                	lw	s0,8(sp)
1c001e04:	0141                	addi	sp,sp,16
1c001e06:	8082                	ret
1c001e08:	3711                	jal	1c001d0c <__rt_bridge_wait>
1c001e0a:	b7ed                	j	1c001df4 <__rt_bridge_check_connection+0x30>
1c001e0c:	8082                	ret

1c001e0e <__rt_bridge_set_available>:
1c001e0e:	1c0057b7          	lui	a5,0x1c005
1c001e12:	fd078793          	addi	a5,a5,-48 # 1c004fd0 <__hal_debug_struct>
1c001e16:	4798                	lw	a4,8(a5)
1c001e18:	1a1047b7          	lui	a5,0x1a104
1c001e1c:	07478793          	addi	a5,a5,116 # 1a104074 <__l1_end+0xa104054>
1c001e20:	e701                	bnez	a4,1c001e28 <__rt_bridge_set_available+0x1a>
1c001e22:	4721                	li	a4,8
1c001e24:	c398                	sw	a4,0(a5)
1c001e26:	8082                	ret
1c001e28:	4709                	li	a4,2
1c001e2a:	bfed                	j	1c001e24 <__rt_bridge_set_available+0x16>

1c001e2c <__rt_bridge_send_notif>:
1c001e2c:	1141                	addi	sp,sp,-16
1c001e2e:	c606                	sw	ra,12(sp)
1c001e30:	3f51                	jal	1c001dc4 <__rt_bridge_check_connection>
1c001e32:	1c0057b7          	lui	a5,0x1c005
1c001e36:	fd078793          	addi	a5,a5,-48 # 1c004fd0 <__hal_debug_struct>
1c001e3a:	479c                	lw	a5,8(a5)
1c001e3c:	c789                	beqz	a5,1c001e46 <__rt_bridge_send_notif+0x1a>
1c001e3e:	1a1047b7          	lui	a5,0x1a104
1c001e42:	4719                	li	a4,6
1c001e44:	dbf8                	sw	a4,116(a5)
1c001e46:	40b2                	lw	ra,12(sp)
1c001e48:	0141                	addi	sp,sp,16
1c001e4a:	8082                	ret

1c001e4c <__rt_bridge_clear_notif>:
  #endif
  }
}

void __rt_bridge_clear_notif()
{
1c001e4c:	1141                	addi	sp,sp,-16
1c001e4e:	c606                	sw	ra,12(sp)
  hal_debug_struct_t *debug_struct = hal_debug_struct_get();

  __rt_bridge_check_connection();
1c001e50:	3f95                	jal	1c001dc4 <__rt_bridge_check_connection>

  if (debug_struct->bridge.connected)
1c001e52:	1c0057b7          	lui	a5,0x1c005
1c001e56:	fd078793          	addi	a5,a5,-48 # 1c004fd0 <__hal_debug_struct>
1c001e5a:	479c                	lw	a5,8(a5)
1c001e5c:	c781                	beqz	a5,1c001e64 <__rt_bridge_clear_notif+0x18>
  {
    __rt_bridge_set_available();
  }
}
1c001e5e:	40b2                	lw	ra,12(sp)
1c001e60:	0141                	addi	sp,sp,16
    __rt_bridge_set_available();
1c001e62:	b775                	j	1c001e0e <__rt_bridge_set_available>
}
1c001e64:	40b2                	lw	ra,12(sp)
1c001e66:	0141                	addi	sp,sp,16
1c001e68:	8082                	ret

1c001e6a <__rt_bridge_printf_flush>:
{
1c001e6a:	1141                	addi	sp,sp,-16
1c001e6c:	c422                	sw	s0,8(sp)
1c001e6e:	c606                	sw	ra,12(sp)
  if (debug_struct->bridge.connected)
1c001e70:	1c005437          	lui	s0,0x1c005
  __rt_bridge_check_connection();
1c001e74:	3f81                	jal	1c001dc4 <__rt_bridge_check_connection>
  if (debug_struct->bridge.connected)
1c001e76:	fd040793          	addi	a5,s0,-48 # 1c004fd0 <__hal_debug_struct>
1c001e7a:	479c                	lw	a5,8(a5)
1c001e7c:	c385                	beqz	a5,1c001e9c <__rt_bridge_printf_flush+0x32>
1c001e7e:	fd040413          	addi	s0,s0,-48
  return *(volatile uint32_t *)&debug_struct->putc_current == 0;
}

static inline int hal_debug_is_busy(hal_debug_struct_t *debug_struct)
{
  return *(volatile uint32_t *)&debug_struct->pending_putchar;
1c001e82:	485c                	lw	a5,20(s0)
    if (hal_debug_is_busy(hal_debug_struct_get()) || !hal_debug_is_empty(hal_debug_struct_get()))
1c001e84:	e399                	bnez	a5,1c001e8a <__rt_bridge_printf_flush+0x20>
  return *(volatile uint32_t *)&debug_struct->putc_current == 0;
1c001e86:	4c1c                	lw	a5,24(s0)
1c001e88:	cb91                	beqz	a5,1c001e9c <__rt_bridge_printf_flush+0x32>
      __rt_bridge_send_notif();
1c001e8a:	374d                	jal	1c001e2c <__rt_bridge_send_notif>
  return *(volatile uint32_t *)&debug_struct->pending_putchar;
1c001e8c:	485c                	lw	a5,20(s0)
      while(hal_debug_is_busy(hal_debug_struct_get()))
1c001e8e:	e789                	bnez	a5,1c001e98 <__rt_bridge_printf_flush+0x2e>
}
1c001e90:	4422                	lw	s0,8(sp)
1c001e92:	40b2                	lw	ra,12(sp)
1c001e94:	0141                	addi	sp,sp,16
      __rt_bridge_clear_notif();
1c001e96:	bf5d                	j	1c001e4c <__rt_bridge_clear_notif>
        __rt_bridge_wait();
1c001e98:	3d95                	jal	1c001d0c <__rt_bridge_wait>
1c001e9a:	bfcd                	j	1c001e8c <__rt_bridge_printf_flush+0x22>
}
1c001e9c:	40b2                	lw	ra,12(sp)
1c001e9e:	4422                	lw	s0,8(sp)
1c001ea0:	0141                	addi	sp,sp,16
1c001ea2:	8082                	ret

1c001ea4 <__rt_bridge_req_shutdown>:
{
1c001ea4:	1141                	addi	sp,sp,-16
1c001ea6:	c606                	sw	ra,12(sp)
1c001ea8:	c422                	sw	s0,8(sp)
  __rt_bridge_check_connection();
1c001eaa:	3f29                	jal	1c001dc4 <__rt_bridge_check_connection>
  if (debug_struct->bridge.connected)
1c001eac:	1c0057b7          	lui	a5,0x1c005
1c001eb0:	fd078793          	addi	a5,a5,-48 # 1c004fd0 <__hal_debug_struct>
1c001eb4:	479c                	lw	a5,8(a5)
1c001eb6:	c7a1                	beqz	a5,1c001efe <__rt_bridge_req_shutdown+0x5a>




static inline unsigned int apb_soc_jtag_reg_read() {
  return pulp_read32(ARCHI_APB_SOC_CTRL_ADDR + APB_SOC_JTAGREG_OFFSET);
1c001eb8:	1a104437          	lui	s0,0x1a104
    __rt_bridge_printf_flush();
1c001ebc:	377d                	jal	1c001e6a <__rt_bridge_printf_flush>
1c001ebe:	07440413          	addi	s0,s0,116 # 1a104074 <__l1_end+0xa104054>
1c001ec2:	401c                	lw	a5,0(s0)
    while((apb_soc_jtag_reg_ext(apb_soc_jtag_reg_read()) >> 1) == 7)
1c001ec4:	83a5                	srli	a5,a5,0x9
1c001ec6:	f837b7b3          	p.bclr	a5,a5,28,3
1c001eca:	0277ae63          	p.beqimm	a5,7,1c001f06 <__rt_bridge_req_shutdown+0x62>
}

static inline void apb_soc_jtag_reg_write(unsigned int value) {
  pulp_write32(ARCHI_APB_SOC_CTRL_ADDR + APB_SOC_JTAGREG_OFFSET, value);
1c001ece:	4791                	li	a5,4
1c001ed0:	c01c                	sw	a5,0(s0)
  return pulp_read32(ARCHI_APB_SOC_CTRL_ADDR + APB_SOC_JTAGREG_OFFSET);
1c001ed2:	1a104437          	lui	s0,0x1a104
1c001ed6:	07440413          	addi	s0,s0,116 # 1a104074 <__l1_end+0xa104054>
1c001eda:	401c                	lw	a5,0(s0)
    while((apb_soc_jtag_reg_ext(apb_soc_jtag_reg_read()) >> 1) != 7)
1c001edc:	83a5                	srli	a5,a5,0x9
1c001ede:	f837b7b3          	p.bclr	a5,a5,28,3
1c001ee2:	0277b463          	p.bneimm	a5,7,1c001f0a <__rt_bridge_req_shutdown+0x66>
  pulp_write32(ARCHI_APB_SOC_CTRL_ADDR + APB_SOC_JTAGREG_OFFSET, value);
1c001ee6:	00042023          	sw	zero,0(s0)
  return pulp_read32(ARCHI_APB_SOC_CTRL_ADDR + APB_SOC_JTAGREG_OFFSET);
1c001eea:	1a104437          	lui	s0,0x1a104
1c001eee:	07440413          	addi	s0,s0,116 # 1a104074 <__l1_end+0xa104054>
1c001ef2:	401c                	lw	a5,0(s0)
    while((apb_soc_jtag_reg_ext(apb_soc_jtag_reg_read()) >> 1) == 7)
1c001ef4:	83a5                	srli	a5,a5,0x9
1c001ef6:	f837b7b3          	p.bclr	a5,a5,28,3
1c001efa:	0077aa63          	p.beqimm	a5,7,1c001f0e <__rt_bridge_req_shutdown+0x6a>
}
1c001efe:	40b2                	lw	ra,12(sp)
1c001f00:	4422                	lw	s0,8(sp)
1c001f02:	0141                	addi	sp,sp,16
1c001f04:	8082                	ret
      __rt_bridge_wait();
1c001f06:	3519                	jal	1c001d0c <__rt_bridge_wait>
1c001f08:	bf6d                	j	1c001ec2 <__rt_bridge_req_shutdown+0x1e>
      __rt_bridge_wait();
1c001f0a:	3509                	jal	1c001d0c <__rt_bridge_wait>
1c001f0c:	b7f9                	j	1c001eda <__rt_bridge_req_shutdown+0x36>
      __rt_bridge_wait();
1c001f0e:	3bfd                	jal	1c001d0c <__rt_bridge_wait>
1c001f10:	b7cd                	j	1c001ef2 <__rt_bridge_req_shutdown+0x4e>

1c001f12 <__rt_bridge_init>:

RT_FC_BOOT_CODE void __attribute__((constructor)) __rt_bridge_init()
{
  hal_bridge_t *bridge = hal_bridge_get();
  
  bridge->first_req = 0;
1c001f12:	1c0057b7          	lui	a5,0x1c005
  bridge->notif_req_addr = ARCHI_FC_ITC_ADDR + ITC_STATUS_SET_OFFSET;
  bridge->notif_req_value = 1<<RT_BRIDGE_ENQUEUE_EVENT;
#else
#if defined(EU_VERSION) && EU_VERSION >= 3
#if defined(ARCHI_HAS_FC)
  bridge->notif_req_addr = ARCHI_FC_GLOBAL_ADDR + ARCHI_FC_PERIPHERALS_OFFSET + ARCHI_FC_EU_OFFSET + EU_SW_EVENTS_AREA_BASE + EU_CORE_TRIGG_SW_EVENT + (RT_BRIDGE_ENQUEUE_EVENT << 2);
1c001f16:	1b201737          	lui	a4,0x1b201
  bridge->first_req = 0;
1c001f1a:	fd078793          	addi	a5,a5,-48 # 1c004fd0 <__hal_debug_struct>
  bridge->notif_req_addr = ARCHI_FC_GLOBAL_ADDR + ARCHI_FC_PERIPHERALS_OFFSET + ARCHI_FC_EU_OFFSET + EU_SW_EVENTS_AREA_BASE + EU_CORE_TRIGG_SW_EVENT + (RT_BRIDGE_ENQUEUE_EVENT << 2);
1c001f1e:	e1070713          	addi	a4,a4,-496 # 1b200e10 <__fc_tcdm_end+0x1ffa40>
1c001f22:	0ae7ac23          	sw	a4,184(a5)
  bridge->notif_req_value = 1;
1c001f26:	4705                	li	a4,1
  bridge->first_req = 0;
1c001f28:	0a07a223          	sw	zero,164(a5)
  bridge->first_bridge_req = 0;
1c001f2c:	0a07a623          	sw	zero,172(a5)
  bridge->target_req = 0;
1c001f30:	0a07aa23          	sw	zero,180(a5)
  bridge->notif_req_value = 1;
1c001f34:	0ae7ae23          	sw	a4,188(a5)
#endif
#endif
#endif

  __rt_bridge_eeprom_handle = NULL;
1c001f38:	00400793          	li	a5,4
1c001f3c:	0007a823          	sw	zero,16(a5)
  __rt_bridge_flash_handle = NULL;
1c001f40:	0007a023          	sw	zero,0(a5)
}
1c001f44:	8082                	ret

1c001f46 <__rt_event_init>:
{
  __rt_event_execute(sched, 0);
  rt_wait_for_interrupt();
  rt_irq_enable();
  rt_irq_disable();
}
1c001f46:	1141                	addi	sp,sp,-16
1c001f48:	c422                	sw	s0,8(sp)
1c001f4a:	c606                	sw	ra,12(sp)
1c001f4c:	842a                	mv	s0,a0
1c001f4e:	02052223          	sw	zero,36(a0)
1c001f52:	02052423          	sw	zero,40(a0)
1c001f56:	45c1                	li	a1,16
1c001f58:	4501                	li	a0,0
1c001f5a:	24b5                	jal	1c0021c6 <rt_alloc>
1c001f5c:	dc68                	sw	a0,124(s0)
1c001f5e:	02042a23          	sw	zero,52(s0)
1c001f62:	00042223          	sw	zero,4(s0)
1c001f66:	40b2                	lw	ra,12(sp)
1c001f68:	4422                	lw	s0,8(sp)
1c001f6a:	0141                	addi	sp,sp,16
1c001f6c:	8082                	ret

1c001f6e <__rt_wait_event_prepare_blocking>:
1c001f6e:	01800793          	li	a5,24
1c001f72:	4388                	lw	a0,0(a5)
1c001f74:	4118                	lw	a4,0(a0)
1c001f76:	02052423          	sw	zero,40(a0)
1c001f7a:	00052223          	sw	zero,4(a0)
1c001f7e:	c398                	sw	a4,0(a5)
1c001f80:	4785                	li	a5,1
1c001f82:	d15c                	sw	a5,36(a0)
1c001f84:	8082                	ret

1c001f86 <rt_event_alloc>:
1c001f86:	1101                	addi	sp,sp,-32
1c001f88:	c64e                	sw	s3,12(sp)
1c001f8a:	89ae                	mv	s3,a1
1c001f8c:	ce06                	sw	ra,28(sp)
1c001f8e:	cc22                	sw	s0,24(sp)
1c001f90:	ca26                	sw	s1,20(sp)
1c001f92:	c84a                	sw	s2,16(sp)
1c001f94:	c452                	sw	s4,8(sp)
1c001f96:	c256                	sw	s5,4(sp)
1c001f98:	30047a73          	csrrci	s4,mstatus,8
1c001f9c:	014027f3          	csrr	a5,uhartid
1c001fa0:	8795                	srai	a5,a5,0x5
1c001fa2:	f267b7b3          	p.bclr	a5,a5,25,6
1c001fa6:	02000713          	li	a4,32
1c001faa:	00278513          	addi	a0,a5,2
1c001fae:	00e79363          	bne	a5,a4,1c001fb4 <rt_event_alloc+0x2e>
1c001fb2:	4505                	li	a0,1
1c001fb4:	00799593          	slli	a1,s3,0x7
1c001fb8:	2439                	jal	1c0021c6 <rt_alloc>
1c001fba:	842a                	mv	s0,a0
1c001fbc:	557d                	li	a0,-1
1c001fbe:	c819                	beqz	s0,1c001fd4 <rt_event_alloc+0x4e>
1c001fc0:	01800493          	li	s1,24
1c001fc4:	4901                	li	s2,0
1c001fc6:	00448a93          	addi	s5,s1,4
1c001fca:	01394e63          	blt	s2,s3,1c001fe6 <rt_event_alloc+0x60>
1c001fce:	300a1073          	csrw	mstatus,s4
1c001fd2:	4501                	li	a0,0
1c001fd4:	40f2                	lw	ra,28(sp)
1c001fd6:	4462                	lw	s0,24(sp)
1c001fd8:	44d2                	lw	s1,20(sp)
1c001fda:	4942                	lw	s2,16(sp)
1c001fdc:	49b2                	lw	s3,12(sp)
1c001fde:	4a22                	lw	s4,8(sp)
1c001fe0:	4a92                	lw	s5,4(sp)
1c001fe2:	6105                	addi	sp,sp,32
1c001fe4:	8082                	ret
1c001fe6:	8522                	mv	a0,s0
1c001fe8:	85d6                	mv	a1,s5
1c001fea:	3fb1                	jal	1c001f46 <__rt_event_init>
1c001fec:	409c                	lw	a5,0(s1)
1c001fee:	0905                	addi	s2,s2,1
1c001ff0:	c01c                	sw	a5,0(s0)
1c001ff2:	c080                	sw	s0,0(s1)
1c001ff4:	08040413          	addi	s0,s0,128
1c001ff8:	bfc9                	j	1c001fca <rt_event_alloc+0x44>

1c001ffa <rt_event_get>:
1c001ffa:	30047773          	csrrci	a4,mstatus,8
1c001ffe:	01800793          	li	a5,24
1c002002:	4388                	lw	a0,0(a5)
1c002004:	c509                	beqz	a0,1c00200e <rt_event_get+0x14>
1c002006:	4114                	lw	a3,0(a0)
1c002008:	c14c                	sw	a1,4(a0)
1c00200a:	c510                	sw	a2,8(a0)
1c00200c:	c394                	sw	a3,0(a5)
1c00200e:	30071073          	csrw	mstatus,a4
1c002012:	8082                	ret

1c002014 <rt_event_get_blocking>:
1c002014:	30047773          	csrrci	a4,mstatus,8
1c002018:	01800793          	li	a5,24
1c00201c:	4388                	lw	a0,0(a5)
1c00201e:	c909                	beqz	a0,1c002030 <rt_event_get_blocking+0x1c>
1c002020:	4114                	lw	a3,0(a0)
1c002022:	00052223          	sw	zero,4(a0)
1c002026:	00052423          	sw	zero,8(a0)
1c00202a:	c394                	sw	a3,0(a5)
1c00202c:	4785                	li	a5,1
1c00202e:	d15c                	sw	a5,36(a0)
1c002030:	30071073          	csrw	mstatus,a4
1c002034:	8082                	ret

1c002036 <rt_event_push>:
1c002036:	30047773          	csrrci	a4,mstatus,8
1c00203a:	01800693          	li	a3,24
1c00203e:	42d4                	lw	a3,4(a3)
1c002040:	00052023          	sw	zero,0(a0)
1c002044:	01800793          	li	a5,24
1c002048:	e691                	bnez	a3,1c002054 <rt_event_push+0x1e>
1c00204a:	c3c8                	sw	a0,4(a5)
1c00204c:	c788                	sw	a0,8(a5)
1c00204e:	30071073          	csrw	mstatus,a4
1c002052:	8082                	ret
1c002054:	4794                	lw	a3,8(a5)
1c002056:	c288                	sw	a0,0(a3)
1c002058:	bfd5                	j	1c00204c <rt_event_push+0x16>

1c00205a <__rt_event_execute>:
1c00205a:	1141                	addi	sp,sp,-16
1c00205c:	c422                	sw	s0,8(sp)
1c00205e:	01800793          	li	a5,24
1c002062:	43dc                	lw	a5,4(a5)
1c002064:	c606                	sw	ra,12(sp)
1c002066:	c226                	sw	s1,4(sp)
1c002068:	01800413          	li	s0,24
1c00206c:	ef81                	bnez	a5,1c002084 <__rt_event_execute+0x2a>
1c00206e:	c1b9                	beqz	a1,1c0020b4 <__rt_event_execute+0x5a>
1c002070:	002047b7          	lui	a5,0x204
1c002074:	0387e703          	p.elw	a4,56(a5) # 204038 <__L2+0x184038>
1c002078:	300467f3          	csrrsi	a5,mstatus,8
1c00207c:	300477f3          	csrrci	a5,mstatus,8
1c002080:	405c                	lw	a5,4(s0)
1c002082:	cb8d                	beqz	a5,1c0020b4 <__rt_event_execute+0x5a>
1c002084:	4485                	li	s1,1
1c002086:	4398                	lw	a4,0(a5)
1c002088:	5794                	lw	a3,40(a5)
1c00208a:	00978a23          	sb	s1,20(a5)
1c00208e:	c058                	sw	a4,4(s0)
1c002090:	4788                	lw	a0,8(a5)
1c002092:	43d8                	lw	a4,4(a5)
1c002094:	e691                	bnez	a3,1c0020a0 <__rt_event_execute+0x46>
1c002096:	53d4                	lw	a3,36(a5)
1c002098:	e681                	bnez	a3,1c0020a0 <__rt_event_execute+0x46>
1c00209a:	4014                	lw	a3,0(s0)
1c00209c:	c394                	sw	a3,0(a5)
1c00209e:	c01c                	sw	a5,0(s0)
1c0020a0:	0207a223          	sw	zero,36(a5)
1c0020a4:	c711                	beqz	a4,1c0020b0 <__rt_event_execute+0x56>
1c0020a6:	300467f3          	csrrsi	a5,mstatus,8
1c0020aa:	9702                	jalr	a4
1c0020ac:	300477f3          	csrrci	a5,mstatus,8
1c0020b0:	405c                	lw	a5,4(s0)
1c0020b2:	fbf1                	bnez	a5,1c002086 <__rt_event_execute+0x2c>
1c0020b4:	40b2                	lw	ra,12(sp)
1c0020b6:	4422                	lw	s0,8(sp)
1c0020b8:	4492                	lw	s1,4(sp)
1c0020ba:	0141                	addi	sp,sp,16
1c0020bc:	8082                	ret

1c0020be <__rt_wait_event>:
  } while(event);

}

void __rt_wait_event(rt_event_t *event)
{
1c0020be:	1141                	addi	sp,sp,-16
1c0020c0:	c422                	sw	s0,8(sp)
1c0020c2:	c606                	sw	ra,12(sp)
1c0020c4:	842a                	mv	s0,a0
  while (event->implem.pending || event->implem.saved_pending) {
1c0020c6:	505c                	lw	a5,36(s0)
1c0020c8:	ef81                	bnez	a5,1c0020e0 <__rt_wait_event+0x22>
1c0020ca:	585c                	lw	a5,52(s0)
1c0020cc:	eb91                	bnez	a5,1c0020e0 <__rt_wait_event+0x22>
    __rt_event_execute(NULL, 1);
  }

  event->next = __rt_first_free;
1c0020ce:	01800793          	li	a5,24
1c0020d2:	4398                	lw	a4,0(a5)
  __rt_first_free = event;
}
1c0020d4:	40b2                	lw	ra,12(sp)
  event->next = __rt_first_free;
1c0020d6:	c018                	sw	a4,0(s0)
  __rt_first_free = event;
1c0020d8:	c380                	sw	s0,0(a5)
}
1c0020da:	4422                	lw	s0,8(sp)
1c0020dc:	0141                	addi	sp,sp,16
1c0020de:	8082                	ret
    __rt_event_execute(NULL, 1);
1c0020e0:	4585                	li	a1,1
1c0020e2:	4501                	li	a0,0
1c0020e4:	3f9d                	jal	1c00205a <__rt_event_execute>
1c0020e6:	b7c5                	j	1c0020c6 <__rt_wait_event+0x8>

1c0020e8 <rt_event_wait>:

void rt_event_wait(rt_event_t *event)
{
1c0020e8:	1141                	addi	sp,sp,-16
1c0020ea:	c606                	sw	ra,12(sp)
1c0020ec:	c422                	sw	s0,8(sp)
  return __builtin_pulp_read_then_spr_bit_clr(reg, val);
1c0020ee:	30047473          	csrrci	s0,mstatus,8
  int irq = rt_irq_disable();
__rt_wait_event(event);
1c0020f2:	37f1                	jal	1c0020be <__rt_wait_event>
  __builtin_pulp_spr_write(reg, val);
1c0020f4:	30041073          	csrw	mstatus,s0
  rt_irq_restore(irq);
}
1c0020f8:	40b2                	lw	ra,12(sp)
1c0020fa:	4422                	lw	s0,8(sp)
1c0020fc:	0141                	addi	sp,sp,16
1c0020fe:	8082                	ret

1c002100 <__rt_event_sched_init>:

void __rt_event_sched_init()
{
  __rt_first_free = NULL;
1c002100:	01800513          	li	a0,24
1c002104:	00052023          	sw	zero,0(a0)
  sched->first = NULL;
1c002108:	00052223          	sw	zero,4(a0)
  rt_event_sched_init(&__rt_sched);
  // Push one event ot the runtime scheduler as some runtime services need
  // one event.
  rt_event_alloc(&__rt_sched, 1);
1c00210c:	4585                	li	a1,1
1c00210e:	0511                	addi	a0,a0,4
1c002110:	bd9d                	j	1c001f86 <rt_event_alloc>

1c002112 <rt_user_alloc_init>:
  rt_alloc_cluster(RT_ALLOC_PERIPH, size, (rt_alloc_req_t *)req);
}

void pi_cl_l2_free(void *chunk, int size, pi_cl_free_req_t *req)
{
  rt_free_cluster(RT_ALLOC_PERIPH, chunk, size, (rt_free_req_t *)req);
1c002112:	00758793          	addi	a5,a1,7
1c002116:	c407b7b3          	p.bclr	a5,a5,2,0
1c00211a:	40b785b3          	sub	a1,a5,a1
1c00211e:	c11c                	sw	a5,0(a0)
1c002120:	8e0d                	sub	a2,a2,a1
1c002122:	00c05763          	blez	a2,1c002130 <rt_user_alloc_init+0x1e>
1c002126:	c4063633          	p.bclr	a2,a2,2,0
1c00212a:	c390                	sw	a2,0(a5)
1c00212c:	0007a223          	sw	zero,4(a5)
1c002130:	8082                	ret

1c002132 <rt_user_alloc>:
1c002132:	411c                	lw	a5,0(a0)
1c002134:	059d                	addi	a1,a1,7
1c002136:	c405b5b3          	p.bclr	a1,a1,2,0
1c00213a:	4701                	li	a4,0
1c00213c:	cb89                	beqz	a5,1c00214e <rt_user_alloc+0x1c>
1c00213e:	4394                	lw	a3,0(a5)
1c002140:	43d0                	lw	a2,4(a5)
1c002142:	00b6c863          	blt	a3,a1,1c002152 <rt_user_alloc+0x20>
1c002146:	00b69b63          	bne	a3,a1,1c00215c <rt_user_alloc+0x2a>
1c00214a:	c719                	beqz	a4,1c002158 <rt_user_alloc+0x26>
1c00214c:	c350                	sw	a2,4(a4)
1c00214e:	853e                	mv	a0,a5
1c002150:	8082                	ret
1c002152:	873e                	mv	a4,a5
1c002154:	87b2                	mv	a5,a2
1c002156:	b7dd                	j	1c00213c <rt_user_alloc+0xa>
1c002158:	c110                	sw	a2,0(a0)
1c00215a:	bfd5                	j	1c00214e <rt_user_alloc+0x1c>
1c00215c:	00b78833          	add	a6,a5,a1
1c002160:	40b685b3          	sub	a1,a3,a1
1c002164:	00b82023          	sw	a1,0(a6)
1c002168:	00c82223          	sw	a2,4(a6)
1c00216c:	c701                	beqz	a4,1c002174 <rt_user_alloc+0x42>
1c00216e:	01072223          	sw	a6,4(a4)
1c002172:	bff1                	j	1c00214e <rt_user_alloc+0x1c>
1c002174:	01052023          	sw	a6,0(a0)
1c002178:	bfd9                	j	1c00214e <rt_user_alloc+0x1c>

1c00217a <rt_user_free>:
1c00217a:	411c                	lw	a5,0(a0)
1c00217c:	061d                	addi	a2,a2,7
1c00217e:	c4063633          	p.bclr	a2,a2,2,0
1c002182:	4701                	li	a4,0
1c002184:	c399                	beqz	a5,1c00218a <rt_user_free+0x10>
1c002186:	02b7e763          	bltu	a5,a1,1c0021b4 <rt_user_free+0x3a>
1c00218a:	00c586b3          	add	a3,a1,a2
1c00218e:	02d79663          	bne	a5,a3,1c0021ba <rt_user_free+0x40>
1c002192:	4394                	lw	a3,0(a5)
1c002194:	43dc                	lw	a5,4(a5)
1c002196:	9636                	add	a2,a2,a3
1c002198:	c190                	sw	a2,0(a1)
1c00219a:	c1dc                	sw	a5,4(a1)
1c00219c:	c31d                	beqz	a4,1c0021c2 <rt_user_free+0x48>
1c00219e:	4314                	lw	a3,0(a4)
1c0021a0:	00d707b3          	add	a5,a4,a3
1c0021a4:	00f59d63          	bne	a1,a5,1c0021be <rt_user_free+0x44>
1c0021a8:	419c                	lw	a5,0(a1)
1c0021aa:	97b6                	add	a5,a5,a3
1c0021ac:	c31c                	sw	a5,0(a4)
1c0021ae:	41dc                	lw	a5,4(a1)
1c0021b0:	c35c                	sw	a5,4(a4)
1c0021b2:	8082                	ret
1c0021b4:	873e                	mv	a4,a5
1c0021b6:	43dc                	lw	a5,4(a5)
1c0021b8:	b7f1                	j	1c002184 <rt_user_free+0xa>
1c0021ba:	c190                	sw	a2,0(a1)
1c0021bc:	bff9                	j	1c00219a <rt_user_free+0x20>
1c0021be:	c34c                	sw	a1,4(a4)
1c0021c0:	8082                	ret
1c0021c2:	c10c                	sw	a1,0(a0)
1c0021c4:	8082                	ret

1c0021c6 <rt_alloc>:
1c0021c6:	4785                	li	a5,1
1c0021c8:	00a7fa63          	bleu	a0,a5,1c0021dc <rt_alloc+0x16>
1c0021cc:	1c00f7b7          	lui	a5,0x1c00f
1c0021d0:	f447a783          	lw	a5,-188(a5) # 1c00ef44 <__rt_alloc_l1>
1c0021d4:	1579                	addi	a0,a0,-2
1c0021d6:	050a                	slli	a0,a0,0x2
1c0021d8:	953e                	add	a0,a0,a5
1c0021da:	bfa1                	j	1c002132 <rt_user_alloc>
1c0021dc:	00153763          	p.bneimm	a0,1,1c0021ea <rt_alloc+0x24>
1c0021e0:	1c00f537          	lui	a0,0x1c00f
1c0021e4:	f4c50513          	addi	a0,a0,-180 # 1c00ef4c <__rt_alloc_fc_tcdm>
1c0021e8:	bfcd                	j	1c0021da <rt_alloc+0x14>
1c0021ea:	1c00f537          	lui	a0,0x1c00f
1c0021ee:	f4850513          	addi	a0,a0,-184 # 1c00ef48 <__rt_alloc_l2>
1c0021f2:	b7e5                	j	1c0021da <rt_alloc+0x14>

1c0021f4 <__rt_alloc_init_l1>:
1c0021f4:	1c00f7b7          	lui	a5,0x1c00f
1c0021f8:	f447a703          	lw	a4,-188(a5) # 1c00ef44 <__rt_alloc_l1>
1c0021fc:	100007b7          	lui	a5,0x10000
1c002200:	01651593          	slli	a1,a0,0x16
1c002204:	6641                	lui	a2,0x10
1c002206:	050a                	slli	a0,a0,0x2
1c002208:	02078793          	addi	a5,a5,32 # 10000020 <__l1_end>
1c00220c:	fe060613          	addi	a2,a2,-32 # ffe0 <__l1_heap_size>
1c002210:	95be                	add	a1,a1,a5
1c002212:	953a                	add	a0,a0,a4
1c002214:	bdfd                	j	1c002112 <rt_user_alloc_init>

1c002216 <__rt_alloc_init_l1_for_fc>:
1c002216:	100005b7          	lui	a1,0x10000
1c00221a:	01651793          	slli	a5,a0,0x16
1c00221e:	02058593          	addi	a1,a1,32 # 10000020 <__l1_end>
1c002222:	00b78733          	add	a4,a5,a1
1c002226:	050a                	slli	a0,a0,0x2
1c002228:	0791                	addi	a5,a5,4
1c00222a:	6641                	lui	a2,0x10
1c00222c:	1c00f6b7          	lui	a3,0x1c00f
1c002230:	fdc60613          	addi	a2,a2,-36 # ffdc <__rt_stack_size+0xf7dc>
1c002234:	95be                	add	a1,a1,a5
1c002236:	953a                	add	a0,a0,a4
1c002238:	f4e6a223          	sw	a4,-188(a3) # 1c00ef44 <__rt_alloc_l1>
1c00223c:	bdd9                	j	1c002112 <rt_user_alloc_init>

1c00223e <__rt_allocs_init>:
1c00223e:	1c00f5b7          	lui	a1,0x1c00f
1c002242:	fa858793          	addi	a5,a1,-88 # 1c00efa8 <__l2_end>
1c002246:	1c080637          	lui	a2,0x1c080
1c00224a:	1c00f537          	lui	a0,0x1c00f
1c00224e:	1141                	addi	sp,sp,-16
1c002250:	8e1d                	sub	a2,a2,a5
1c002252:	fa858593          	addi	a1,a1,-88
1c002256:	f4850513          	addi	a0,a0,-184 # 1c00ef48 <__rt_alloc_l2>
1c00225a:	c606                	sw	ra,12(sp)
1c00225c:	c422                	sw	s0,8(sp)
1c00225e:	3d55                	jal	1c002112 <rt_user_alloc_init>
1c002260:	1b0015b7          	lui	a1,0x1b001
1c002264:	3d058793          	addi	a5,a1,976 # 1b0013d0 <__fc_tcdm_end>
1c002268:	1b004637          	lui	a2,0x1b004
1c00226c:	1c00f437          	lui	s0,0x1c00f
1c002270:	8e1d                	sub	a2,a2,a5
1c002272:	3d058593          	addi	a1,a1,976
1c002276:	f4c40513          	addi	a0,s0,-180 # 1c00ef4c <__rt_alloc_fc_tcdm>
1c00227a:	3d61                	jal	1c002112 <rt_user_alloc_init>
1c00227c:	014027f3          	csrr	a5,uhartid
1c002280:	ca5797b3          	p.extractu	a5,a5,5,5
1c002284:	e791                	bnez	a5,1c002290 <__rt_allocs_init+0x52>
1c002286:	4422                	lw	s0,8(sp)
1c002288:	40b2                	lw	ra,12(sp)
1c00228a:	4501                	li	a0,0
1c00228c:	0141                	addi	sp,sp,16
1c00228e:	b761                	j	1c002216 <__rt_alloc_init_l1_for_fc>
1c002290:	f4c40513          	addi	a0,s0,-180
1c002294:	4591                	li	a1,4
1c002296:	3d71                	jal	1c002132 <rt_user_alloc>
1c002298:	40b2                	lw	ra,12(sp)
1c00229a:	4422                	lw	s0,8(sp)
1c00229c:	1c00f7b7          	lui	a5,0x1c00f
1c0022a0:	f4a7a223          	sw	a0,-188(a5) # 1c00ef44 <__rt_alloc_l1>
1c0022a4:	0141                	addi	sp,sp,16
1c0022a6:	8082                	ret

1c0022a8 <pi_cl_l1_malloc>:
}

void *pi_cl_l1_malloc(struct pi_device *device, uint32_t size)
{
  return rt_alloc(RT_ALLOC_CL_DATA, size);
1c0022a8:	4509                	li	a0,2
1c0022aa:	bf31                	j	1c0021c6 <rt_alloc>

1c0022ac <pi_cl_l1_free>:
  if (flags >= RT_ALLOC_CL_DATA) return rt_user_free(rt_alloc_l1(flags - RT_ALLOC_CL_DATA), _chunk, size);
1c0022ac:	1c00f7b7          	lui	a5,0x1c00f
1c0022b0:	f447a503          	lw	a0,-188(a5) # 1c00ef44 <__rt_alloc_l1>
1c0022b4:	b5d9                	j	1c00217a <rt_user_free>

1c0022b6 <__rt_time_poweroff>:
  rt_event_wait(event);
}

void pi_time_wait_us(int time_us)
{
  rt_time_wait_us(time_us);
1c0022b6:	002007b7          	lui	a5,0x200
1c0022ba:	40478793          	addi	a5,a5,1028 # 200404 <__L2+0x180404>
1c0022be:	0087a783          	lw	a5,8(a5)
1c0022c2:	1c005737          	lui	a4,0x1c005
1c0022c6:	2af72423          	sw	a5,680(a4) # 1c0052a8 <timer_count>
1c0022ca:	4501                	li	a0,0
1c0022cc:	8082                	ret

1c0022ce <__rt_time_poweron>:
1c0022ce:	1c0057b7          	lui	a5,0x1c005
1c0022d2:	2a87a703          	lw	a4,680(a5) # 1c0052a8 <timer_count>
1c0022d6:	002007b7          	lui	a5,0x200
1c0022da:	40478793          	addi	a5,a5,1028 # 200404 <__L2+0x180404>
1c0022de:	00e7a423          	sw	a4,8(a5)
1c0022e2:	4501                	li	a0,0
1c0022e4:	8082                	ret

1c0022e6 <rt_event_push_delayed>:
1c0022e6:	30047373          	csrrci	t1,mstatus,8
1c0022ea:	1c00f637          	lui	a2,0x1c00f
1c0022ee:	f5062703          	lw	a4,-176(a2) # 1c00ef50 <first_delayed>
1c0022f2:	002007b7          	lui	a5,0x200
1c0022f6:	40478793          	addi	a5,a5,1028 # 200404 <__L2+0x180404>
1c0022fa:	0087a783          	lw	a5,8(a5)
1c0022fe:	46f9                	li	a3,30
1c002300:	0405e5b3          	p.max	a1,a1,zero
1c002304:	02d5c5b3          	div	a1,a1,a3
1c002308:	800006b7          	lui	a3,0x80000
1c00230c:	fff6c693          	not	a3,a3
1c002310:	00d7f833          	and	a6,a5,a3
1c002314:	0585                	addi	a1,a1,1
1c002316:	97ae                	add	a5,a5,a1
1c002318:	dd1c                	sw	a5,56(a0)
1c00231a:	982e                	add	a6,a6,a1
1c00231c:	4781                	li	a5,0
1c00231e:	c719                	beqz	a4,1c00232c <rt_event_push_delayed+0x46>
1c002320:	03872883          	lw	a7,56(a4)
1c002324:	00d8f8b3          	and	a7,a7,a3
1c002328:	0108e863          	bltu	a7,a6,1c002338 <rt_event_push_delayed+0x52>
1c00232c:	cb89                	beqz	a5,1c00233e <rt_event_push_delayed+0x58>
1c00232e:	cfc8                	sw	a0,28(a5)
1c002330:	cd58                	sw	a4,28(a0)
1c002332:	30031073          	csrw	mstatus,t1
1c002336:	8082                	ret
1c002338:	87ba                	mv	a5,a4
1c00233a:	4f58                	lw	a4,28(a4)
1c00233c:	b7cd                	j	1c00231e <rt_event_push_delayed+0x38>
1c00233e:	002007b7          	lui	a5,0x200
1c002342:	40478793          	addi	a5,a5,1028 # 200404 <__L2+0x180404>
1c002346:	f4a62823          	sw	a0,-176(a2)
1c00234a:	cd58                	sw	a4,28(a0)
1c00234c:	0087a703          	lw	a4,8(a5)
1c002350:	95ba                	add	a1,a1,a4
1c002352:	00b7a823          	sw	a1,16(a5)
1c002356:	08500713          	li	a4,133
1c00235a:	00e7a023          	sw	a4,0(a5)
1c00235e:	bfd1                	j	1c002332 <rt_event_push_delayed+0x4c>

1c002360 <rt_time_wait_us>:
1c002360:	1101                	addi	sp,sp,-32
1c002362:	85aa                	mv	a1,a0
1c002364:	4501                	li	a0,0
1c002366:	ce06                	sw	ra,28(sp)
1c002368:	cc22                	sw	s0,24(sp)
1c00236a:	c62e                	sw	a1,12(sp)
1c00236c:	3165                	jal	1c002014 <rt_event_get_blocking>
1c00236e:	45b2                	lw	a1,12(sp)
1c002370:	842a                	mv	s0,a0
1c002372:	3f95                	jal	1c0022e6 <rt_event_push_delayed>
1c002374:	8522                	mv	a0,s0
1c002376:	4462                	lw	s0,24(sp)
1c002378:	40f2                	lw	ra,28(sp)
1c00237a:	6105                	addi	sp,sp,32
1c00237c:	b3b5                	j	1c0020e8 <rt_event_wait>

1c00237e <__rt_time_init>:

RT_FC_BOOT_CODE void __attribute__((constructor)) __rt_time_init()
{
  int err = 0;

  first_delayed = NULL;
1c00237e:	1c00f7b7          	lui	a5,0x1c00f
1c002382:	f407a823          	sw	zero,-176(a5) # 1c00ef50 <first_delayed>
//

#ifndef LANGUAGE_ASSEMBLY

static inline uint32_t timer_cfg_lo_get(uint32_t base) { return ARCHI_READ(base, TIMER_CFG_LO_OFFSET); }
static inline void timer_cfg_lo_set(uint32_t base, uint32_t value) { ARCHI_WRITE(base, TIMER_CFG_LO_OFFSET, value); }
1c002386:	002007b7          	lui	a5,0x200
{
1c00238a:	1141                	addi	sp,sp,-16
1c00238c:	08300713          	li	a4,131
1c002390:	40478793          	addi	a5,a5,1028 # 200404 <__L2+0x180404>
1c002394:	c606                	sw	ra,12(sp)
1c002396:	c422                	sw	s0,8(sp)
1c002398:	00e7a023          	sw	a4,0(a5)
    TIMER_CFG_LO_RESET(1)  |
    TIMER_CFG_LO_CCFG(1)
  );

#if defined(ARCHI_HAS_FC)
  rt_irq_set_handler(ARCHI_FC_EVT_TIMER0_HI, __rt_timer_handler);
1c00239c:	1c0025b7          	lui	a1,0x1c002
1c0023a0:	40a58593          	addi	a1,a1,1034 # 1c00240a <__rt_timer_handler>
1c0023a4:	452d                	li	a0,11
1c0023a6:	e5aff0ef          	jal	ra,1c001a00 <rt_irq_set_handler>
  ARCHI_WRITE(base, EU_CORE_MASK_IRQ_OR, irqMask);
1c0023aa:	6785                	lui	a5,0x1
1c0023ac:	80078793          	addi	a5,a5,-2048 # 800 <__rt_stack_size>
1c0023b0:	00204737          	lui	a4,0x204
1c0023b4:	00f72a23          	sw	a5,20(a4) # 204014 <__L2+0x184014>
  ARCHI_WRITE(ARCHI_EU_DEMUX_ADDR, EU_CORE_MASK_OR, evtMask);
1c0023b8:	00f72423          	sw	a5,8(a4)
#else
  rt_irq_set_handler(ARCHI_EVT_TIMER0_HI, __rt_timer_handler);
  rt_irq_mask_set(1<<ARCHI_EVT_TIMER0_HI);
#endif

  err |= __rt_cbsys_add(RT_CBSYS_POWEROFF, __rt_time_poweroff, NULL);
1c0023bc:	1c0025b7          	lui	a1,0x1c002
1c0023c0:	4601                	li	a2,0
1c0023c2:	2b658593          	addi	a1,a1,694 # 1c0022b6 <__rt_time_poweroff>
1c0023c6:	4509                	li	a0,2
1c0023c8:	fa4ff0ef          	jal	ra,1c001b6c <__rt_cbsys_add>
  err |= __rt_cbsys_add(RT_CBSYS_POWERON, __rt_time_poweron, NULL);
1c0023cc:	1c0025b7          	lui	a1,0x1c002
  err |= __rt_cbsys_add(RT_CBSYS_POWEROFF, __rt_time_poweroff, NULL);
1c0023d0:	842a                	mv	s0,a0
  err |= __rt_cbsys_add(RT_CBSYS_POWERON, __rt_time_poweron, NULL);
1c0023d2:	4601                	li	a2,0
1c0023d4:	2ce58593          	addi	a1,a1,718 # 1c0022ce <__rt_time_poweron>
1c0023d8:	450d                	li	a0,3
1c0023da:	f92ff0ef          	jal	ra,1c001b6c <__rt_cbsys_add>
1c0023de:	8d41                	or	a0,a0,s0

  if (err) rt_fatal("Unable to initialize time driver\n");
1c0023e0:	c10d                	beqz	a0,1c002402 <__rt_time_init+0x84>
  asm("csrr %0, 0x014" : "=r" (hart_id) : );
1c0023e2:	01402673          	csrr	a2,uhartid
1c0023e6:	1c005537          	lui	a0,0x1c005
  return (hart_id >> 5) & 0x3f;
1c0023ea:	40565593          	srai	a1,a2,0x5
1c0023ee:	f265b5b3          	p.bclr	a1,a1,25,6
1c0023f2:	f4563633          	p.bclr	a2,a2,26,5
1c0023f6:	dc050513          	addi	a0,a0,-576 # 1c004dc0 <__clz_tab+0x1b4>
1c0023fa:	63e010ef          	jal	ra,1c003a38 <printf>
1c0023fe:	5a6010ef          	jal	ra,1c0039a4 <abort>
}
1c002402:	40b2                	lw	ra,12(sp)
1c002404:	4422                	lw	s0,8(sp)
1c002406:	0141                	addi	sp,sp,16
1c002408:	8082                	ret

1c00240a <__rt_timer_handler>:
#if defined(__LLVM__)
void __rt_timer_handler()
#else
void __attribute__((interrupt)) __rt_timer_handler()
#endif
{
1c00240a:	7179                	addi	sp,sp,-48
1c00240c:	d032                	sw	a2,32(sp)
  rt_event_t *event = first_delayed;
1c00240e:	1c00f637          	lui	a2,0x1c00f
{
1c002412:	ca3e                	sw	a5,20(sp)
  rt_event_t *event = first_delayed;
1c002414:	f5062783          	lw	a5,-176(a2) # 1c00ef50 <first_delayed>
{
1c002418:	ce36                	sw	a3,28(sp)

static inline uint32_t timer_cfg_hi_get(uint32_t base) { return ARCHI_READ(base, TIMER_CFG_HI_OFFSET); }
static inline void timer_cfg_hi_set(uint32_t base, uint32_t value) { ARCHI_WRITE(base, TIMER_CFG_HI_OFFSET, value); }

static inline uint32_t timer_cnt_lo_get(uint32_t base) { return ARCHI_READ(base, TIMER_CNT_LO_OFFSET); }
1c00241a:	002006b7          	lui	a3,0x200
1c00241e:	40468693          	addi	a3,a3,1028 # 200404 <__L2+0x180404>
1c002422:	d61a                	sw	t1,44(sp)
1c002424:	d42a                	sw	a0,40(sp)
1c002426:	d22e                	sw	a1,36(sp)
1c002428:	cc3a                	sw	a4,24(sp)
1c00242a:	c842                	sw	a6,16(sp)
1c00242c:	c646                	sw	a7,12(sp)
1c00242e:	c472                	sw	t3,8(sp)
1c002430:	c276                	sw	t4,4(sp)
1c002432:	0086a683          	lw	a3,8(a3)
1c002436:	01c00593          	li	a1,28
1c00243a:	01c02503          	lw	a0,28(zero) # 1c <_l1_preload_size>
1c00243e:	41cc                	lw	a1,4(a1)

  uint32_t current_time = timer_count_get(timer_base_fc(0, 1));

  // First dequeue and push to their scheduler all events with the same number of
  // ticks as they were waiting for the same time.
  while (event && (current_time - event->implem.time) < 0x7fffffff)
1c002440:	80000337          	lui	t1,0x80000
1c002444:	4801                	li	a6,0
1c002446:	4881                	li	a7,0
1c002448:	01c00e93          	li	t4,28
1c00244c:	ffe34313          	xori	t1,t1,-2
1c002450:	e7ad                	bnez	a5,1c0024ba <__rt_timer_handler+0xb0>
1c002452:	00088463          	beqz	a7,1c00245a <__rt_timer_handler+0x50>
1c002456:	00a02e23          	sw	a0,28(zero) # 1c <_l1_preload_size>
1c00245a:	00080463          	beqz	a6,1c002462 <__rt_timer_handler+0x58>
1c00245e:	00bea223          	sw	a1,4(t4)
static inline void timer_cfg_lo_set(uint32_t base, uint32_t value) { ARCHI_WRITE(base, TIMER_CFG_LO_OFFSET, value); }
1c002462:	002007b7          	lui	a5,0x200
1c002466:	08100713          	li	a4,129
1c00246a:	40478793          	addi	a5,a5,1028 # 200404 <__L2+0x180404>
    event = next;
  }

  // Update the wait list with the next waiting event which has a different number
  // of ticks
  first_delayed = event;
1c00246e:	f4062823          	sw	zero,-176(a2)
1c002472:	00e7a023          	sw	a4,0(a5)
  ARCHI_WRITE(ARCHI_EU_DEMUX_ADDR, EU_CORE_BUFFER_CLEAR, evtMask);
1c002476:	6785                	lui	a5,0x1
1c002478:	80078793          	addi	a5,a5,-2048 # 800 <__rt_stack_size>
1c00247c:	00204737          	lui	a4,0x204
1c002480:	02f72423          	sw	a5,40(a4) # 204028 <__L2+0x184028>
    rt_irq_clr(1 << ARCHI_FC_EVT_TIMER0_HI);
#else
    rt_irq_clr(1 << ARCHI_EVT_TIMER0_HI);
#endif
  }
}
1c002484:	5332                	lw	t1,44(sp)
1c002486:	5522                	lw	a0,40(sp)
1c002488:	5592                	lw	a1,36(sp)
1c00248a:	5602                	lw	a2,32(sp)
1c00248c:	46f2                	lw	a3,28(sp)
1c00248e:	4762                	lw	a4,24(sp)
1c002490:	47d2                	lw	a5,20(sp)
1c002492:	4842                	lw	a6,16(sp)
1c002494:	48b2                	lw	a7,12(sp)
1c002496:	4e22                	lw	t3,8(sp)
1c002498:	4e92                	lw	t4,4(sp)
1c00249a:	6145                	addi	sp,sp,48
1c00249c:	30200073          	mret
  rt_irq_restore(irq);
}

static inline __attribute__((always_inline)) void __rt_enqueue_event_to_sched(rt_event_sched_t *sched, rt_event_t *event)
{
  event->next = NULL;
1c0024a0:	0007a023          	sw	zero,0(a5)
    rt_event_t *next = event->implem.next;
1c0024a4:	01c7ae03          	lw	t3,28(a5)
  if (sched->first == NULL) {
1c0024a8:	c511                	beqz	a0,1c0024b4 <__rt_timer_handler+0xaa>
    sched->first = event;
  } else {
    sched->last->next = event;
1c0024aa:	c19c                	sw	a5,0(a1)
    event = next;
1c0024ac:	85be                	mv	a1,a5
1c0024ae:	4805                	li	a6,1
1c0024b0:	87f2                	mv	a5,t3
1c0024b2:	bf79                	j	1c002450 <__rt_timer_handler+0x46>
  if (sched->first == NULL) {
1c0024b4:	853e                	mv	a0,a5
1c0024b6:	4885                	li	a7,1
1c0024b8:	bfd5                	j	1c0024ac <__rt_timer_handler+0xa2>
  while (event && (current_time - event->implem.time) < 0x7fffffff)
1c0024ba:	0387ae03          	lw	t3,56(a5)
1c0024be:	41c68e33          	sub	t3,a3,t3
1c0024c2:	fdc37fe3          	bleu	t3,t1,1c0024a0 <__rt_timer_handler+0x96>
1c0024c6:	00088463          	beqz	a7,1c0024ce <__rt_timer_handler+0xc4>
1c0024ca:	00a02e23          	sw	a0,28(zero) # 1c <_l1_preload_size>
1c0024ce:	00080463          	beqz	a6,1c0024d6 <__rt_timer_handler+0xcc>
1c0024d2:	00bea223          	sw	a1,4(t4)
static inline uint32_t timer_cnt_lo_get(uint32_t base) { return ARCHI_READ(base, TIMER_CNT_LO_OFFSET); }
1c0024d6:	00200737          	lui	a4,0x200
1c0024da:	40470713          	addi	a4,a4,1028 # 200404 <__L2+0x180404>
  first_delayed = event;
1c0024de:	f4f62823          	sw	a5,-176(a2)
1c0024e2:	00872603          	lw	a2,8(a4)
      first_delayed->implem.time - current_time
1c0024e6:	5f9c                	lw	a5,56(a5)
1c0024e8:	40d786b3          	sub	a3,a5,a3
1c0024ec:	96b2                	add	a3,a3,a2

static inline uint32_t timer_cnt_hi_get(uint32_t base) { return ARCHI_READ(base, TIMER_CNT_HI_OFFSET); }
static inline void timer_cnt_hi_set(uint32_t base, uint32_t value) { ARCHI_WRITE(base, TIMER_CNT_HI_OFFSET, value); }

static inline uint32_t timer_cmp_lo_get(uint32_t base) { return ARCHI_READ(base, TIMER_CMP_LO_OFFSET); }
static inline void timer_cmp_lo_set(uint32_t base, uint32_t value) { ARCHI_WRITE(base, TIMER_CMP_LO_OFFSET, value); }
1c0024ee:	00d72823          	sw	a3,16(a4)
static inline void timer_cfg_lo_set(uint32_t base, uint32_t value) { ARCHI_WRITE(base, TIMER_CFG_LO_OFFSET, value); }
1c0024f2:	08500793          	li	a5,133
1c0024f6:	00f72023          	sw	a5,0(a4)
}
1c0024fa:	b769                	j	1c002484 <__rt_timer_handler+0x7a>

1c0024fc <rt_periph_copy>:
  }

  __rt_socevents_status[index] &= ~(1<<event);

  rt_irq_restore(irq);
}
1c0024fc:	7179                	addi	sp,sp,-48
1c0024fe:	d422                	sw	s0,40(sp)
1c002500:	842a                	mv	s0,a0
1c002502:	d606                	sw	ra,44(sp)
1c002504:	d226                	sw	s1,36(sp)
1c002506:	d04a                	sw	s2,32(sp)
1c002508:	30047973          	csrrci	s2,mstatus,8
1c00250c:	4015d493          	srai	s1,a1,0x1
1c002510:	1a102537          	lui	a0,0x1a102
1c002514:	049e                	slli	s1,s1,0x7
1c002516:	94aa                	add	s1,s1,a0
1c002518:	00459513          	slli	a0,a1,0x4
1c00251c:	8941                	andi	a0,a0,16
1c00251e:	94aa                	add	s1,s1,a0
1c002520:	853e                	mv	a0,a5
1c002522:	ef89                	bnez	a5,1c00253c <rt_periph_copy+0x40>
1c002524:	ce2e                	sw	a1,28(sp)
1c002526:	cc32                	sw	a2,24(sp)
1c002528:	ca36                	sw	a3,20(sp)
1c00252a:	c83a                	sw	a4,16(sp)
1c00252c:	c63e                	sw	a5,12(sp)
1c00252e:	a41ff0ef          	jal	ra,1c001f6e <__rt_wait_event_prepare_blocking>
1c002532:	47b2                	lw	a5,12(sp)
1c002534:	4742                	lw	a4,16(sp)
1c002536:	46d2                	lw	a3,20(sp)
1c002538:	4662                	lw	a2,24(sp)
1c00253a:	45f2                	lw	a1,28(sp)
1c00253c:	e419                	bnez	s0,1c00254a <rt_periph_copy+0x4e>
1c00253e:	03850413          	addi	s0,a0,56 # 1a102038 <__l1_end+0xa102018>
1c002542:	04052223          	sw	zero,68(a0)
1c002546:	04052a23          	sw	zero,84(a0)
1c00254a:	00c42803          	lw	a6,12(s0)
1c00254e:	c054                	sw	a3,4(s0)
1c002550:	cc08                	sw	a0,24(s0)
1c002552:	f6483833          	p.bclr	a6,a6,27,4
1c002556:	4891                	li	a7,4
1c002558:	c0474733          	p.bset	a4,a4,0,4
1c00255c:	0908e163          	bltu	a7,a6,1c0025de <rt_periph_copy+0xe2>
1c002560:	03000893          	li	a7,48
1c002564:	0596                	slli	a1,a1,0x5
1c002566:	98ae                	add	a7,a7,a1
1c002568:	0008a303          	lw	t1,0(a7)
1c00256c:	00042a23          	sw	zero,20(s0)
1c002570:	03000813          	li	a6,48
1c002574:	02031b63          	bnez	t1,1c0025aa <rt_periph_copy+0xae>
1c002578:	0088a023          	sw	s0,0(a7)
1c00257c:	00b808b3          	add	a7,a6,a1
1c002580:	0088a303          	lw	t1,8(a7)
1c002584:	0088a223          	sw	s0,4(a7)
1c002588:	02031663          	bnez	t1,1c0025b4 <rt_periph_copy+0xb8>
1c00258c:	00848893          	addi	a7,s1,8
1c002590:	0008a883          	lw	a7,0(a7)
1c002594:	0208f893          	andi	a7,a7,32
1c002598:	00089e63          	bnez	a7,1c0025b4 <rt_periph_copy+0xb8>
1c00259c:	00c4a023          	sw	a2,0(s1)
1c0025a0:	00d4a223          	sw	a3,4(s1)
1c0025a4:	00e4a423          	sw	a4,8(s1)
1c0025a8:	a005                	j	1c0025c8 <rt_periph_copy+0xcc>
1c0025aa:	0048a883          	lw	a7,4(a7)
1c0025ae:	0088aa23          	sw	s0,20(a7)
1c0025b2:	b7e9                	j	1c00257c <rt_periph_copy+0x80>
1c0025b4:	00042823          	sw	zero,16(s0)
1c0025b8:	c010                	sw	a2,0(s0)
1c0025ba:	c054                	sw	a3,4(s0)
1c0025bc:	c418                	sw	a4,8(s0)
1c0025be:	00031563          	bnez	t1,1c0025c8 <rt_periph_copy+0xcc>
1c0025c2:	982e                	add	a6,a6,a1
1c0025c4:	00882423          	sw	s0,8(a6)
1c0025c8:	e399                	bnez	a5,1c0025ce <rt_periph_copy+0xd2>
1c0025ca:	af5ff0ef          	jal	ra,1c0020be <__rt_wait_event>
1c0025ce:	30091073          	csrw	mstatus,s2
1c0025d2:	50b2                	lw	ra,44(sp)
1c0025d4:	5422                	lw	s0,40(sp)
1c0025d6:	5492                	lw	s1,36(sp)
1c0025d8:	5902                	lw	s2,32(sp)
1c0025da:	6145                	addi	sp,sp,48
1c0025dc:	8082                	ret
1c0025de:	fe6835e3          	p.bneimm	a6,6,1c0025c8 <rt_periph_copy+0xcc>
1c0025e2:	03000893          	li	a7,48
1c0025e6:	0596                	slli	a1,a1,0x5
1c0025e8:	98ae                	add	a7,a7,a1
1c0025ea:	0008a303          	lw	t1,0(a7)
1c0025ee:	00042a23          	sw	zero,20(s0)
1c0025f2:	03000813          	li	a6,48
1c0025f6:	00031f63          	bnez	t1,1c002614 <rt_periph_copy+0x118>
1c0025fa:	0088a023          	sw	s0,0(a7)
1c0025fe:	95c2                	add	a1,a1,a6
1c002600:	c1c0                	sw	s0,4(a1)
1c002602:	00031e63          	bnez	t1,1c00261e <rt_periph_copy+0x122>
1c002606:	02442803          	lw	a6,36(s0)
1c00260a:	1a1025b7          	lui	a1,0x1a102
1c00260e:	1b05a023          	sw	a6,416(a1) # 1a1021a0 <__l1_end+0xa102180>
1c002612:	b769                	j	1c00259c <rt_periph_copy+0xa0>
1c002614:	0048a883          	lw	a7,4(a7)
1c002618:	0088aa23          	sw	s0,20(a7)
1c00261c:	b7cd                	j	1c0025fe <rt_periph_copy+0x102>
1c00261e:	c418                	sw	a4,8(s0)
1c002620:	4598                	lw	a4,8(a1)
1c002622:	c010                	sw	a2,0(s0)
1c002624:	c054                	sw	a3,4(s0)
1c002626:	00042823          	sw	zero,16(s0)
1c00262a:	ff59                	bnez	a4,1c0025c8 <rt_periph_copy+0xcc>
1c00262c:	c580                	sw	s0,8(a1)
1c00262e:	bf69                	j	1c0025c8 <rt_periph_copy+0xcc>

1c002630 <__rt_periph_wait_event>:
1c002630:	30047673          	csrrci	a2,mstatus,8
1c002634:	477d                	li	a4,31
1c002636:	4781                	li	a5,0
1c002638:	00a75463          	ble	a0,a4,1c002640 <__rt_periph_wait_event+0x10>
1c00263c:	1501                	addi	a0,a0,-32
1c00263e:	4785                	li	a5,1
1c002640:	00279713          	slli	a4,a5,0x2
1c002644:	4685                	li	a3,1
1c002646:	03000793          	li	a5,48
1c00264a:	00a696b3          	sll	a3,a3,a0
1c00264e:	97ba                	add	a5,a5,a4
1c002650:	00204837          	lui	a6,0x204
1c002654:	2807a703          	lw	a4,640(a5)
1c002658:	8f75                	and	a4,a4,a3
1c00265a:	cf19                	beqz	a4,1c002678 <__rt_periph_wait_event+0x48>
1c00265c:	c999                	beqz	a1,1c002672 <__rt_periph_wait_event+0x42>
1c00265e:	2807a683          	lw	a3,640(a5)
1c002662:	4705                	li	a4,1
1c002664:	00a71533          	sll	a0,a4,a0
1c002668:	fff54513          	not	a0,a0
1c00266c:	8d75                	and	a0,a0,a3
1c00266e:	28a7a023          	sw	a0,640(a5)
1c002672:	30061073          	csrw	mstatus,a2
1c002676:	8082                	ret
1c002678:	03886703          	p.elw	a4,56(a6) # 204038 <__L2+0x184038>
1c00267c:	30046773          	csrrsi	a4,mstatus,8
1c002680:	30047773          	csrrci	a4,mstatus,8
1c002684:	bfc1                	j	1c002654 <__rt_periph_wait_event+0x24>

1c002686 <__rt_periph_init>:
  for (unsigned int i=0; i<ARCHI_NB_PERIPH*2; i++) {
    rt_periph_channel_t *channel = &periph_channels[i];
    channel->first = NULL;
    channel->firstToEnqueue = NULL;
    channel->base = hal_udma_channel_base(i);
    channel->callback = udma_event_handler;
1c002686:	1c000537          	lui	a0,0x1c000
1c00268a:	03000693          	li	a3,48
  for (unsigned int i=0; i<ARCHI_NB_PERIPH*2; i++) {
1c00268e:	4601                	li	a2,0
1c002690:	03000713          	li	a4,48
static inline unsigned int hal_udma_periph_base(int id) {
  return ARCHI_SOC_PERIPHERALS_ADDR + ARCHI_UDMA_OFFSET + UDMA_PERIPH_OFFSET(id);
}

static inline __attribute__((always_inline)) unsigned int hal_udma_channel_base(int id) {
  return ARCHI_SOC_PERIPHERALS_ADDR + ARCHI_UDMA_OFFSET + UDMA_PERIPH_OFFSET(id>>1) + UDMA_CHANNEL_OFFSET(id&1);
1c002694:	1a1028b7          	lui	a7,0x1a102
    channel->callback = udma_event_handler;
1c002698:	2b450513          	addi	a0,a0,692 # 1c0002b4 <udma_event_handler>
1c00269c:	014950fb          	lp.setupi	x1,20,1c0026c0 <__rt_periph_init+0x3a>
1c0026a0:	40165793          	srai	a5,a2,0x1
1c0026a4:	00461813          	slli	a6,a2,0x4
1c0026a8:	079e                	slli	a5,a5,0x7
1c0026aa:	97c6                	add	a5,a5,a7
1c0026ac:	01087813          	andi	a6,a6,16
1c0026b0:	97c2                	add	a5,a5,a6
    channel->first = NULL;
1c0026b2:	0006a023          	sw	zero,0(a3)
    channel->firstToEnqueue = NULL;
1c0026b6:	0006a423          	sw	zero,8(a3)
    channel->base = hal_udma_channel_base(i);
1c0026ba:	c6dc                	sw	a5,12(a3)
    channel->callback = udma_event_handler;
1c0026bc:	cec8                	sw	a0,28(a3)
  for (unsigned int i=0; i<ARCHI_NB_PERIPH*2; i++) {
1c0026be:	0605                	addi	a2,a2,1
1c0026c0:	02068693          	addi	a3,a3,32
  }
  
  for (int i=0; i<ARCHI_SOC_EVENT_UDMA_NB_EXTRA_EVT; i++)
  {
    __rt_udma_extra_callback[i] = __rt_soc_evt_no_udma;
1c0026c4:	1c0006b7          	lui	a3,0x1c000
1c0026c8:	28870613          	addi	a2,a4,648
1c0026cc:	45e68693          	addi	a3,a3,1118 # 1c00045e <__rt_soc_evt_no_udma>
1c0026d0:	00a250fb          	lp.setupi	x1,10,1c0026d8 <__rt_periph_init+0x52>
1c0026d4:	00d6222b          	p.sw	a3,4(a2!)
1c0026d8:	0001                	nop
  }

  __rt_socevents_status[0] = 0;
1c0026da:	28072023          	sw	zero,640(a4)
  __rt_socevents_status[1] = 0;
1c0026de:	28072223          	sw	zero,644(a4)
}
1c0026e2:	8082                	ret

1c0026e4 <rt_freq_set_and_get>:
void rt_freq_wait_convergence(int fll)
{
}

int rt_freq_set_and_get(rt_freq_domain_e domain, unsigned int freq, unsigned int *out_freq)
{
1c0026e4:	1141                	addi	sp,sp,-16
1c0026e6:	c226                	sw	s1,4(sp)
1c0026e8:	84ae                	mv	s1,a1
1c0026ea:	c606                	sw	ra,12(sp)
1c0026ec:	c422                	sw	s0,8(sp)
1c0026ee:	c04a                	sw	s2,0(sp)
  return __builtin_pulp_read_then_spr_bit_clr(reg, val);
1c0026f0:	30047973          	csrrci	s2,mstatus,8
  __asm__ __volatile__ ("" : : : "memory");
1c0026f4:	1c00f437          	lui	s0,0x1c00f
  int irq = rt_irq_disable();
  int err = 0;

  rt_trace(RT_TRACE_FREQ, "Setting domain frequency (domain: %d, freq: %d)\n", domain, freq);

  if (domain == RT_FREQ_DOMAIN_CL)
1c0026f8:	00153f63          	p.bneimm	a0,1,1c002716 <rt_freq_set_and_get+0x32>
  {
    // On cluster side, this is straight forward as the fll is not shared
    __rt_fll_set_freq(__RT_FLL_CL, freq);
    __rt_freq_domains[RT_FREQ_DOMAIN_CL] = freq;
1c0026fc:	f5440413          	addi	s0,s0,-172 # 1c00ef54 <__rt_freq_domains>
    __rt_fll_set_freq(__RT_FLL_CL, freq);
1c002700:	2179                	jal	1c002b8e <__rt_fll_set_freq>
    __rt_freq_domains[RT_FREQ_DOMAIN_CL] = freq;
1c002702:	c044                	sw	s1,4(s0)
  __builtin_pulp_spr_write(reg, val);
1c002704:	30091073          	csrw	mstatus,s2
  }

  rt_irq_restore(irq);

  return err;
}
1c002708:	40b2                	lw	ra,12(sp)
1c00270a:	4422                	lw	s0,8(sp)
1c00270c:	4492                	lw	s1,4(sp)
1c00270e:	4902                	lw	s2,0(sp)
1c002710:	4501                	li	a0,0
1c002712:	0141                	addi	sp,sp,16
1c002714:	8082                	ret
    __rt_cbsys_exec(RT_CBSYS_PERIPH_SETFREQ_BEFORE);
1c002716:	4511                	li	a0,4
1c002718:	c92ff0ef          	jal	ra,1c001baa <__rt_cbsys_exec>
    __rt_fll_set_freq(0, freq);
1c00271c:	85a6                	mv	a1,s1
1c00271e:	4501                	li	a0,0
1c002720:	21bd                	jal	1c002b8e <__rt_fll_set_freq>
    __rt_cbsys_exec(RT_CBSYS_PERIPH_SETFREQ_AFTER);
1c002722:	4515                	li	a0,5
    __rt_freq_domains[RT_FREQ_DOMAIN_FC] = freq;
1c002724:	f4942a23          	sw	s1,-172(s0)
    __rt_cbsys_exec(RT_CBSYS_PERIPH_SETFREQ_AFTER);
1c002728:	c82ff0ef          	jal	ra,1c001baa <__rt_cbsys_exec>
1c00272c:	bfe1                	j	1c002704 <rt_freq_set_and_get+0x20>

1c00272e <__rt_freq_init>:

void __rt_freq_init()
{
1c00272e:	1141                	addi	sp,sp,-16
1c002730:	c422                	sw	s0,8(sp)
1c002732:	c606                	sw	ra,12(sp)

  __rt_flls_constructor();
1c002734:	29a1                	jal	1c002b8c <__rt_flls_constructor>
  return __rt_platform;
1c002736:	1c0057b7          	lui	a5,0x1c005

  // On all chips only FLL 0 is initialized here as it is shared between periph and soc
  // while FLL 1 is used for cluster only and thus is initialized when the cluster is set on.
  if (rt_platform() != ARCHI_PLATFORM_FPGA)
1c00273a:	0947a783          	lw	a5,148(a5) # 1c005094 <__rt_platform>
1c00273e:	1c00f437          	lui	s0,0x1c00f
1c002742:	0017ae63          	p.beqimm	a5,1,1c00275e <__rt_freq_init+0x30>
  {
    __rt_freq_domains[RT_FREQ_DOMAIN_FC] = __rt_fll_init(__RT_FLL_FC);
1c002746:	4501                	li	a0,0
1c002748:	2905                	jal	1c002b78 <__rt_fll_init>
1c00274a:	f4a42a23          	sw	a0,-172(s0) # 1c00ef54 <__rt_freq_domains>
  }
  else
  {
    __rt_freq_domains[RT_FREQ_DOMAIN_FC] = 40000000;
  }
  __rt_freq_domains[RT_FREQ_DOMAIN_CL] = 0;
1c00274e:	f5440413          	addi	s0,s0,-172
1c002752:	00042223          	sw	zero,4(s0)

}
1c002756:	40b2                	lw	ra,12(sp)
1c002758:	4422                	lw	s0,8(sp)
1c00275a:	0141                	addi	sp,sp,16
1c00275c:	8082                	ret
    __rt_freq_domains[RT_FREQ_DOMAIN_FC] = 40000000;
1c00275e:	026267b7          	lui	a5,0x2626
1c002762:	a0078793          	addi	a5,a5,-1536 # 2625a00 <__L2+0x25a5a00>
1c002766:	f4f42a23          	sw	a5,-172(s0)
1c00276a:	b7d5                	j	1c00274e <__rt_freq_init+0x20>

1c00276c <SetFllMultDivFactors>:
  if (PMURetentionState.Fields.BootType != COLD_BOOT && PMURetentionState.Fields.ClusterWakeUpState) {
          // ChangePowerSystemState(POWER_SYSTEM_STATE(PMURetentionState.Fields.WakeupState, PMURetentionState.Fields.ClusterWakeUpState), 0);
    __rt_pmu_cluster_power_up(NULL, NULL);
    if (PMU_ClusterIsRunning() && PMURetentionState.Fields.FllClusterRetention) InitOneFll(FLL_CLUSTER, 1);
  }
}
1c00276c:	100517b3          	p.fl1	a5,a0
1c002770:	4769                	li	a4,26
1c002772:	8f1d                	sub	a4,a4,a5
1c002774:	4785                	li	a5,1
1c002776:	04f76733          	p.max	a4,a4,a5
1c00277a:	47a1                	li	a5,8
1c00277c:	04f74733          	p.min	a4,a4,a5
1c002780:	fff70693          	addi	a3,a4,-1
1c002784:	00f55793          	srli	a5,a0,0xf
1c002788:	00d797b3          	sll	a5,a5,a3
1c00278c:	c19c                	sw	a5,0(a1)
1c00278e:	07be                	slli	a5,a5,0xf
1c002790:	c218                	sw	a4,0(a2)
1c002792:	00d7d533          	srl	a0,a5,a3
1c002796:	8082                	ret

1c002798 <soc_eu_fcEventMask_setEvent>:
1c002798:	47fd                	li	a5,31
1c00279a:	4721                	li	a4,8
1c00279c:	00f50463          	beq	a0,a5,1c0027a4 <soc_eu_fcEventMask_setEvent+0xc>
1c0027a0:	1501                	addi	a0,a0,-32
1c0027a2:	4711                	li	a4,4
1c0027a4:	1a1066b7          	lui	a3,0x1a106
1c0027a8:	20e6f603          	p.lw	a2,a4(a3)
1c0027ac:	4785                	li	a5,1
1c0027ae:	00a79533          	sll	a0,a5,a0
1c0027b2:	fff54513          	not	a0,a0
1c0027b6:	8d71                	and	a0,a0,a2
1c0027b8:	00a6e723          	p.sw	a0,a4(a3)
1c0027bc:	8082                	ret

1c0027be <__rt_pmu_cluster_power_down>:
1c0027be:	1c0057b7          	lui	a5,0x1c005
1c0027c2:	0947a783          	lw	a5,148(a5) # 1c005094 <__rt_platform>
1c0027c6:	0817a163          	p.beqimm	a5,1,1c002848 <__rt_pmu_cluster_power_down+0x8a>
1c0027ca:	1141                	addi	sp,sp,-16
1c0027cc:	1a1046b7          	lui	a3,0x1a104
1c0027d0:	c606                	sw	ra,12(sp)
1c0027d2:	c422                	sw	s0,8(sp)
1c0027d4:	c226                	sw	s1,4(sp)
1c0027d6:	c04a                	sw	s2,0(sp)
1c0027d8:	0706a683          	lw	a3,112(a3) # 1a104070 <__l1_end+0xa104050>
1c0027dc:	1c005737          	lui	a4,0x1c005
1c0027e0:	0a470713          	addi	a4,a4,164 # 1c0050a4 <SystemStateToSCUFastSeq>
1c0027e4:	00874783          	lbu	a5,8(a4)
1c0027e8:	8436                	mv	s0,a3
1c0027ea:	c0079933          	p.extractu	s2,a5,0,0
1c0027ee:	04193763          	p.bneimm	s2,1,1c00283c <__rt_pmu_cluster_power_down+0x7e>
1c0027f2:	01069613          	slli	a2,a3,0x10
1c0027f6:	04064363          	bltz	a2,1c00283c <__rt_pmu_cluster_power_down+0x7e>
1c0027fa:	c007b7b3          	p.bclr	a5,a5,0,0
1c0027fe:	c0a92433          	p.insert	s0,s2,0,10
1c002802:	1a1044b7          	lui	s1,0x1a104
1c002806:	00f70423          	sb	a5,8(a4)
1c00280a:	0684a823          	sw	s0,112(s1) # 1a104070 <__l1_end+0xa104050>
1c00280e:	4585                	li	a1,1
1c002810:	02300513          	li	a0,35
1c002814:	3d31                	jal	1c002630 <__rt_periph_wait_event>
1c002816:	4785                	li	a5,1
1c002818:	00f4a623          	sw	a5,12(s1)
1c00281c:	c0302433          	p.insert	s0,zero,0,3
1c002820:	0684a823          	sw	s0,112(s1)
1c002824:	c0d92433          	p.insert	s0,s2,0,13
1c002828:	0684a823          	sw	s0,112(s1)
1c00282c:	4422                	lw	s0,8(sp)
1c00282e:	40b2                	lw	ra,12(sp)
1c002830:	4492                	lw	s1,4(sp)
1c002832:	4902                	lw	s2,0(sp)
1c002834:	4585                	li	a1,1
1c002836:	457d                	li	a0,31
1c002838:	0141                	addi	sp,sp,16
1c00283a:	bbdd                	j	1c002630 <__rt_periph_wait_event>
1c00283c:	40b2                	lw	ra,12(sp)
1c00283e:	4422                	lw	s0,8(sp)
1c002840:	4492                	lw	s1,4(sp)
1c002842:	4902                	lw	s2,0(sp)
1c002844:	0141                	addi	sp,sp,16
1c002846:	8082                	ret
1c002848:	8082                	ret

1c00284a <SetFllFrequency>:
1c00284a:	7179                	addi	sp,sp,-48
1c00284c:	d422                	sw	s0,40(sp)
1c00284e:	d226                	sw	s1,36(sp)
1c002850:	1c005437          	lui	s0,0x1c005
1c002854:	84aa                	mv	s1,a0
1c002856:	d606                	sw	ra,44(sp)
1c002858:	852e                	mv	a0,a1
1c00285a:	0a440413          	addi	s0,s0,164 # 1c0050a4 <SystemStateToSCUFastSeq>
1c00285e:	0014be63          	p.bneimm	s1,1,1c00287a <SetFllFrequency+0x30>
1c002862:	00844783          	lbu	a5,8(s0)
1c002866:	c0079733          	p.extractu	a4,a5,0,0
1c00286a:	08172663          	p.beqimm	a4,1,1c0028f6 <SetFllFrequency+0xac>
1c00286e:	4501                	li	a0,0
1c002870:	50b2                	lw	ra,44(sp)
1c002872:	5422                	lw	s0,40(sp)
1c002874:	5492                	lw	s1,36(sp)
1c002876:	6145                	addi	sp,sp,48
1c002878:	8082                	ret
1c00287a:	ce25                	beqz	a2,1c0028f2 <SetFllFrequency+0xa8>
1c00287c:	00844783          	lbu	a5,8(s0)
1c002880:	03200713          	li	a4,50
1c002884:	c21797b3          	p.extractu	a5,a5,1,1
1c002888:	97a2                	add	a5,a5,s0
1c00288a:	00a7c783          	lbu	a5,10(a5)
1c00288e:	00e787db          	p.mac	a5,a5,a4,zero
1c002892:	22678793          	addi	a5,a5,550
1c002896:	eca5                	bnez	s1,1c00290e <SetFllFrequency+0xc4>
1c002898:	0007a6b7          	lui	a3,0x7a
1c00289c:	eb237737          	lui	a4,0xeb237
1c0028a0:	12068693          	addi	a3,a3,288 # 7a120 <__L1Cl+0x6a120>
1c0028a4:	c8070713          	addi	a4,a4,-896 # eb236c80 <pulp__FC+0xeb236c81>
1c0028a8:	42d78733          	p.mac	a4,a5,a3
1c0028ac:	fcb761e3          	bltu	a4,a1,1c00286e <SetFllFrequency+0x24>
1c0028b0:	c62a                	sw	a0,12(sp)
1c0028b2:	df2ff0ef          	jal	ra,1c001ea4 <__rt_bridge_req_shutdown>
1c0028b6:	4532                	lw	a0,12(sp)
1c0028b8:	0870                	addi	a2,sp,28
1c0028ba:	082c                	addi	a1,sp,24
1c0028bc:	3d45                	jal	1c00276c <SetFllMultDivFactors>
1c0028be:	4762                	lw	a4,24(sp)
1c0028c0:	800007b7          	lui	a5,0x80000
1c0028c4:	1a1006b7          	lui	a3,0x1a100
1c0028c8:	de0727b3          	p.insert	a5,a4,15,0
1c0028cc:	4772                	lw	a4,28(sp)
1c0028ce:	c7a727b3          	p.insert	a5,a4,3,26
1c0028d2:	00449713          	slli	a4,s1,0x4
1c0028d6:	0711                	addi	a4,a4,4
1c0028d8:	00f6e723          	p.sw	a5,a4(a3)
1c0028dc:	00249793          	slli	a5,s1,0x2
1c0028e0:	943e                	add	s0,s0,a5
1c0028e2:	d008                	sw	a0,32(s0)
1c0028e4:	c808                	sw	a0,16(s0)
1c0028e6:	f4c9                	bnez	s1,1c002870 <SetFllFrequency+0x26>
1c0028e8:	c62a                	sw	a0,12(sp)
1c0028ea:	d24ff0ef          	jal	ra,1c001e0e <__rt_bridge_set_available>
1c0028ee:	4532                	lw	a0,12(sp)
1c0028f0:	b741                	j	1c002870 <SetFllFrequency+0x26>
1c0028f2:	f0f9                	bnez	s1,1c0028b8 <SetFllFrequency+0x6e>
1c0028f4:	bf75                	j	1c0028b0 <SetFllFrequency+0x66>
1c0028f6:	d269                	beqz	a2,1c0028b8 <SetFllFrequency+0x6e>
1c0028f8:	c21797b3          	p.extractu	a5,a5,1,1
1c0028fc:	97a2                	add	a5,a5,s0
1c0028fe:	00a7c783          	lbu	a5,10(a5) # 8000000a <pulp__FC+0x8000000b>
1c002902:	03200713          	li	a4,50
1c002906:	00e787db          	p.mac	a5,a5,a4,zero
1c00290a:	22678793          	addi	a5,a5,550
1c00290e:	0006b6b7          	lui	a3,0x6b
1c002912:	eaf5a737          	lui	a4,0xeaf5a
1c002916:	6c068693          	addi	a3,a3,1728 # 6b6c0 <__L1Cl+0x5b6c0>
1c00291a:	5c070713          	addi	a4,a4,1472 # eaf5a5c0 <pulp__FC+0xeaf5a5c1>
1c00291e:	42d78733          	p.mac	a4,a5,a3
1c002922:	f8a77be3          	bleu	a0,a4,1c0028b8 <SetFllFrequency+0x6e>
1c002926:	b7a1                	j	1c00286e <SetFllFrequency+0x24>

1c002928 <InitOneFll>:
1c002928:	7179                	addi	sp,sp,-48
1c00292a:	00451713          	slli	a4,a0,0x4
1c00292e:	ce4e                	sw	s3,28(sp)
1c002930:	1a1007b7          	lui	a5,0x1a100
1c002934:	00470993          	addi	s3,a4,4
1c002938:	d606                	sw	ra,44(sp)
1c00293a:	d422                	sw	s0,40(sp)
1c00293c:	d226                	sw	s1,36(sp)
1c00293e:	d04a                	sw	s2,32(sp)
1c002940:	2137f783          	p.lw	a5,s3(a5)
1c002944:	1c005437          	lui	s0,0x1c005
1c002948:	0a440413          	addi	s0,s0,164 # 1c0050a4 <SystemStateToSCUFastSeq>
1c00294c:	00251913          	slli	s2,a0,0x2
1c002950:	c585                	beqz	a1,1c002978 <InitOneFll+0x50>
1c002952:	c7a79733          	p.extractu	a4,a5,3,26
1c002956:	1007d7b3          	p.exthz	a5,a5
1c00295a:	07be                	slli	a5,a5,0xf
1c00295c:	c701                	beqz	a4,1c002964 <InitOneFll+0x3c>
1c00295e:	177d                	addi	a4,a4,-1
1c002960:	00e7d7b3          	srl	a5,a5,a4
1c002964:	944a                	add	s0,s0,s2
1c002966:	d01c                	sw	a5,32(s0)
1c002968:	c81c                	sw	a5,16(s0)
1c00296a:	50b2                	lw	ra,44(sp)
1c00296c:	5422                	lw	s0,40(sp)
1c00296e:	5492                	lw	s1,36(sp)
1c002970:	5902                	lw	s2,32(sp)
1c002972:	49f2                	lw	s3,28(sp)
1c002974:	6145                	addi	sp,sp,48
1c002976:	8082                	ret
1c002978:	0007d363          	bgez	a5,1c00297e <InitOneFll+0x56>
1c00297c:	c105                	beqz	a0,1c00299c <InitOneFll+0x74>
1c00297e:	810047b7          	lui	a5,0x81004
1c002982:	1a1006b7          	lui	a3,0x1a100
1c002986:	00870613          	addi	a2,a4,8
1c00298a:	10778793          	addi	a5,a5,263 # 81004107 <pulp__FC+0x81004108>
1c00298e:	00f6e623          	p.sw	a5,a2(a3)
1c002992:	014c04b7          	lui	s1,0x14c0
1c002996:	0731                	addi	a4,a4,12
1c002998:	0096e723          	p.sw	s1,a4(a3)
1c00299c:	02faf537          	lui	a0,0x2faf
1c0029a0:	0070                	addi	a2,sp,12
1c0029a2:	002c                	addi	a1,sp,8
1c0029a4:	08050513          	addi	a0,a0,128 # 2faf080 <__L2+0x2f2f080>
1c0029a8:	33d1                	jal	1c00276c <SetFllMultDivFactors>
1c0029aa:	47a2                	lw	a5,8(sp)
1c0029ac:	c00004b7          	lui	s1,0xc0000
1c0029b0:	de07a4b3          	p.insert	s1,a5,15,0
1c0029b4:	47b2                	lw	a5,12(sp)
1c0029b6:	c7a7a4b3          	p.insert	s1,a5,3,26
1c0029ba:	1a1007b7          	lui	a5,0x1a100
1c0029be:	0097e9a3          	p.sw	s1,s3(a5)
1c0029c2:	944a                	add	s0,s0,s2
1c0029c4:	d008                	sw	a0,32(s0)
1c0029c6:	c808                	sw	a0,16(s0)
1c0029c8:	b74d                	j	1c00296a <InitOneFll+0x42>

1c0029ca <__rt_pmu_cluster_power_up>:
1c0029ca:	1141                	addi	sp,sp,-16
1c0029cc:	c226                	sw	s1,4(sp)
1c0029ce:	1c0054b7          	lui	s1,0x1c005
1c0029d2:	c606                	sw	ra,12(sp)
1c0029d4:	c422                	sw	s0,8(sp)
1c0029d6:	c04a                	sw	s2,0(sp)
1c0029d8:	0a448793          	addi	a5,s1,164 # 1c0050a4 <SystemStateToSCUFastSeq>
1c0029dc:	0087c783          	lbu	a5,8(a5) # 1a100008 <__l1_end+0xa0fffe8>
1c0029e0:	4501                	li	a0,0
1c0029e2:	c00797b3          	p.extractu	a5,a5,0,0
1c0029e6:	e785                	bnez	a5,1c002a0e <__rt_pmu_cluster_power_up+0x44>
1c0029e8:	1c0057b7          	lui	a5,0x1c005
1c0029ec:	0947a783          	lw	a5,148(a5) # 1c005094 <__rt_platform>
1c0029f0:	0a448493          	addi	s1,s1,164
1c0029f4:	0217b363          	p.bneimm	a5,1,1c002a1a <__rt_pmu_cluster_power_up+0x50>
1c0029f8:	1a1047b7          	lui	a5,0x1a104
1c0029fc:	0007a623          	sw	zero,12(a5) # 1a10400c <__l1_end+0xa103fec>
1c002a00:	0084c783          	lbu	a5,8(s1)
1c002a04:	4505                	li	a0,1
1c002a06:	c007c7b3          	p.bset	a5,a5,0,0
1c002a0a:	00f48423          	sb	a5,8(s1)
1c002a0e:	40b2                	lw	ra,12(sp)
1c002a10:	4422                	lw	s0,8(sp)
1c002a12:	4492                	lw	s1,4(sp)
1c002a14:	4902                	lw	s2,0(sp)
1c002a16:	0141                	addi	sp,sp,16
1c002a18:	8082                	ret
1c002a1a:	1a104437          	lui	s0,0x1a104
1c002a1e:	07042403          	lw	s0,112(s0) # 1a104070 <__l1_end+0xa104050>
1c002a22:	c0a417b3          	p.extractu	a5,s0,0,10
1c002a26:	ef81                	bnez	a5,1c002a3e <__rt_pmu_cluster_power_up+0x74>
1c002a28:	4785                	li	a5,1
1c002a2a:	c0a7a433          	p.insert	s0,a5,0,10
1c002a2e:	1a1047b7          	lui	a5,0x1a104
1c002a32:	0687a823          	sw	s0,112(a5) # 1a104070 <__l1_end+0xa104050>
1c002a36:	4585                	li	a1,1
1c002a38:	02300513          	li	a0,35
1c002a3c:	3ed5                	jal	1c002630 <__rt_periph_wait_event>
1c002a3e:	4785                	li	a5,1
1c002a40:	c037a433          	p.insert	s0,a5,0,3
1c002a44:	1a104937          	lui	s2,0x1a104
1c002a48:	06892823          	sw	s0,112(s2) # 1a104070 <__l1_end+0xa104050>
1c002a4c:	4585                	li	a1,1
1c002a4e:	457d                	li	a0,31
1c002a50:	36c5                	jal	1c002630 <__rt_periph_wait_event>
1c002a52:	00092623          	sw	zero,12(s2)
1c002a56:	c0d02433          	p.insert	s0,zero,0,13
1c002a5a:	06892823          	sw	s0,112(s2)
1c002a5e:	c0a02433          	p.insert	s0,zero,0,10
1c002a62:	06892823          	sw	s0,112(s2)
1c002a66:	4585                	li	a1,1
1c002a68:	02300513          	li	a0,35
1c002a6c:	36d1                	jal	1c002630 <__rt_periph_wait_event>
1c002a6e:	01c4c783          	lbu	a5,28(s1)
1c002a72:	0207f793          	andi	a5,a5,32
1c002a76:	e781                	bnez	a5,1c002a7e <__rt_pmu_cluster_power_up+0xb4>
1c002a78:	4581                	li	a1,0
1c002a7a:	4505                	li	a0,1
1c002a7c:	3575                	jal	1c002928 <InitOneFll>
1c002a7e:	c0e44433          	p.bset	s0,s0,0,14
1c002a82:	1a1047b7          	lui	a5,0x1a104
1c002a86:	0687a823          	sw	s0,112(a5) # 1a104070 <__l1_end+0xa104050>
1c002a8a:	bf9d                	j	1c002a00 <__rt_pmu_cluster_power_up+0x36>

1c002a8c <InitFlls>:

  }
}

void  __attribute__ ((noinline)) InitFlls()
{
1c002a8c:	1141                	addi	sp,sp,-16
1c002a8e:	c422                	sw	s0,8(sp)
  __rt_bridge_req_shutdown();

  InitOneFll(FLL_SOC, PMURetentionState.Fields.FllSoCRetention);
1c002a90:	1c005437          	lui	s0,0x1c005
{
1c002a94:	c606                	sw	ra,12(sp)
  InitOneFll(FLL_SOC, PMURetentionState.Fields.FllSoCRetention);
1c002a96:	0a440413          	addi	s0,s0,164 # 1c0050a4 <SystemStateToSCUFastSeq>
  __rt_bridge_req_shutdown();
1c002a9a:	c0aff0ef          	jal	ra,1c001ea4 <__rt_bridge_req_shutdown>
  InitOneFll(FLL_SOC, PMURetentionState.Fields.FllSoCRetention);
1c002a9e:	01c44583          	lbu	a1,28(s0)
1c002aa2:	4501                	li	a0,0
1c002aa4:	c04595b3          	p.extractu	a1,a1,0,4
1c002aa8:	3541                	jal	1c002928 <InitOneFll>
#define PMU_ERROR_CLUSTER_STATE_CHANGE_FAILED   (0x1<<4)

extern void 		   InitPMUDriver();

static inline int 	   PMU_ClusterIsDown()    { return (CLUSTER_STATE(PMUState.State)==CLUSTER_OFF);}
static inline int 	   PMU_ClusterIsRunning() { return (CLUSTER_STATE(PMUState.State)==CLUSTER_ON);}
1c002aaa:	00844783          	lbu	a5,8(s0)
1c002aae:	c00797b3          	p.extractu	a5,a5,0,0
  if (PMU_ClusterIsRunning()) InitOneFll(FLL_CLUSTER, PMURetentionState.Fields.FllClusterRetention);
1c002ab2:	0017b863          	p.bneimm	a5,1,1c002ac2 <InitFlls+0x36>
1c002ab6:	01c44583          	lbu	a1,28(s0)
1c002aba:	4505                	li	a0,1
1c002abc:	c05595b3          	p.extractu	a1,a1,0,5
1c002ac0:	35a5                	jal	1c002928 <InitOneFll>

#ifdef __RT_USE_BRIDGE
  __rt_bridge_set_available();
#endif
}
1c002ac2:	4422                	lw	s0,8(sp)
1c002ac4:	40b2                	lw	ra,12(sp)
1c002ac6:	0141                	addi	sp,sp,16
  __rt_bridge_set_available();
1c002ac8:	b46ff06f          	j	1c001e0e <__rt_bridge_set_available>

1c002acc <__rt_pmu_init>:
1c002acc:	1c0057b7          	lui	a5,0x1c005
  if (rt_platform() == ARCHI_PLATFORM_FPGA) {
1c002ad0:	0947a783          	lw	a5,148(a5) # 1c005094 <__rt_platform>
1c002ad4:	0a17a163          	p.beqimm	a5,1,1c002b76 <__rt_pmu_init+0xaa>
{
1c002ad8:	1141                	addi	sp,sp,-16
  __rt_wakeup_use_fast = 0;
1c002ada:	1c00f7b7          	lui	a5,0x1c00f
  return IP_READ(ARCHI_APB_SOC_CTRL_ADDR, PMU_DCDC_CONFIG_OFFSET);
1c002ade:	1a104637          	lui	a2,0x1a104
{
1c002ae2:	c606                	sw	ra,12(sp)
  __rt_wakeup_use_fast = 0;
1c002ae4:	f407ae23          	sw	zero,-164(a5) # 1c00ef5c <__rt_wakeup_use_fast>
1c002ae8:	10062703          	lw	a4,256(a2) # 1a104100 <__l1_end+0xa1040e0>
  return IP_READ(ARCHI_APB_SOC_CTRL_ADDR, PMU_RETENTION_CONFIG_OFFSET);
1c002aec:	10462683          	lw	a3,260(a2)
  PMURetentionState.Raw = GetRetentiveState();
1c002af0:	1c0057b7          	lui	a5,0x1c005
1c002af4:	0a478793          	addi	a5,a5,164 # 1c0050a4 <SystemStateToSCUFastSeq>
1c002af8:	cfd4                	sw	a3,28(a5)
  PMUState.State = RetPMUStateToPMUState[PMURetentionState.Fields.WakeupState];
1c002afa:	c2e696b3          	p.extractu	a3,a3,1,14
1c002afe:	96be                	add	a3,a3,a5
1c002b00:	0286c683          	lbu	a3,40(a3) # 1a100028 <__l1_end+0xa100008>
  PMUState.DCDC_Settings[REGU_OFF] = 0;
1c002b04:	000786a3          	sb	zero,13(a5)
  PMUState.State = RetPMUStateToPMUState[PMURetentionState.Fields.WakeupState];
1c002b08:	00d78423          	sb	a3,8(a5)
  PMUState.DCDC_Settings[REGU_NV]  = __builtin_bitextractu(DCDCValue, DCDC_RANGE, DCDC_Nominal*8);
1c002b0c:	c80716b3          	p.extractu	a3,a4,4,0
1c002b10:	00d78523          	sb	a3,10(a5)
  PMUState.DCDC_Settings[REGU_LV]  = __builtin_bitextractu(DCDCValue, DCDC_RANGE, DCDC_Low*8);
1c002b14:	c90716b3          	p.extractu	a3,a4,4,16
  PMUState.DCDC_Settings[REGU_RET] = __builtin_bitextractu(DCDCValue, DCDC_RANGE, DCDC_Retentive*8);
1c002b18:	c9871733          	p.extractu	a4,a4,4,24
  PMUState.DCDC_Settings[REGU_LV]  = __builtin_bitextractu(DCDCValue, DCDC_RANGE, DCDC_Low*8);
1c002b1c:	00d785a3          	sb	a3,11(a5)
  PMUState.DCDC_Settings[REGU_RET] = __builtin_bitextractu(DCDCValue, DCDC_RANGE, DCDC_Retentive*8);
1c002b20:	00e78623          	sb	a4,12(a5)
  Bypass.Raw = GetPMUBypass();
1c002b24:	07062783          	lw	a5,112(a2)
  Bypass.Fields.Bypass = 1;
1c002b28:	4705                	li	a4,1
1c002b2a:	c00727b3          	p.insert	a5,a4,0,0
  Bypass.Fields.BypassClock = 1;
1c002b2e:	c09727b3          	p.insert	a5,a4,0,9
  IP_WRITE(ARCHI_APB_SOC_CTRL_ADDR, APB_SOC_CL_BYPASS_OFFSET, Value);
1c002b32:	06f62823          	sw	a5,112(a2)
  InitFlls();
1c002b36:	3f99                	jal	1c002a8c <InitFlls>
  soc_eu_fcEventMask_setEvent(ARCHI_SOC_EVENT_CLUSTER_ON_OFF);
1c002b38:	457d                	li	a0,31
1c002b3a:	39b9                	jal	1c002798 <soc_eu_fcEventMask_setEvent>
  soc_eu_fcEventMask_setEvent(ARCHI_SOC_EVENT_MSP);
1c002b3c:	02000513          	li	a0,32
1c002b40:	39a1                	jal	1c002798 <soc_eu_fcEventMask_setEvent>
  soc_eu_fcEventMask_setEvent(ARCHI_SOC_EVENT_ICU_MODE_CHANGED);
1c002b42:	02100513          	li	a0,33
1c002b46:	3989                	jal	1c002798 <soc_eu_fcEventMask_setEvent>
  soc_eu_fcEventMask_setEvent(ARCHI_SOC_EVENT_ICU_OK);
1c002b48:	02200513          	li	a0,34
1c002b4c:	31b1                	jal	1c002798 <soc_eu_fcEventMask_setEvent>
  soc_eu_fcEventMask_setEvent(ARCHI_SOC_EVENT_ICU_DELAYED);
1c002b4e:	02300513          	li	a0,35
1c002b52:	3199                	jal	1c002798 <soc_eu_fcEventMask_setEvent>
  soc_eu_fcEventMask_setEvent(ARCHI_SOC_EVENT_PICL_OK);
1c002b54:	02400513          	li	a0,36
1c002b58:	3181                	jal	1c002798 <soc_eu_fcEventMask_setEvent>
  soc_eu_fcEventMask_setEvent(ARCHI_SOC_EVENT_SCU_OK);
1c002b5a:	02500513          	li	a0,37
1c002b5e:	392d                	jal	1c002798 <soc_eu_fcEventMask_setEvent>
  PMU_Write(DLC_IMR, 0x7);
1c002b60:	1a1077b7          	lui	a5,0x1a107
1c002b64:	471d                	li	a4,7
1c002b66:	00e7a623          	sw	a4,12(a5) # 1a10700c <__l1_end+0xa106fec>
  PMU_Write(DLC_IFR, (MAESTRO_EVENT_PICL_OK|MAESTRO_EVENT_SCU_OK));
1c002b6a:	4761                	li	a4,24
1c002b6c:	00e7a823          	sw	a4,16(a5)
}
1c002b70:	40b2                	lw	ra,12(sp)
1c002b72:	0141                	addi	sp,sp,16
1c002b74:	8082                	ret
1c002b76:	8082                	ret

1c002b78 <__rt_fll_init>:


unsigned int __rt_fll_init(int fll)
{
  return FllsFrequency[fll];
1c002b78:	00251793          	slli	a5,a0,0x2
1c002b7c:	1c005537          	lui	a0,0x1c005
1c002b80:	0a450513          	addi	a0,a0,164 # 1c0050a4 <SystemStateToSCUFastSeq>
1c002b84:	953e                	add	a0,a0,a5
}
1c002b86:	5108                	lw	a0,32(a0)
1c002b88:	8082                	ret

1c002b8a <__rt_fll_deinit>:

void __rt_fll_deinit(int fll)
{
}
1c002b8a:	8082                	ret

1c002b8c <__rt_flls_constructor>:

void __rt_flls_constructor()
{
}
1c002b8c:	8082                	ret

1c002b8e <__rt_fll_set_freq>:

unsigned int __rt_fll_set_freq(int fll, unsigned int frequency)
{
  return SetFllFrequency(fll, frequency, 0);
1c002b8e:	4601                	li	a2,0
1c002b90:	b96d                	j	1c00284a <SetFllFrequency>

1c002b92 <__rt_init_cluster_data>:
{
#if defined(EU_VERSION) && EU_VERSION >= 3
  eu_evt_maskSet((1<<PULP_DISPATCH_EVENT) | (1<<PULP_HW_BAR_EVENT) | (1<<PULP_MUTEX_EVENT));
  rt_team_fork(rt_nb_pe(), cluster_pe_start, NULL);
#endif
}
1c002b92:	04050713          	addi	a4,a0,64
1c002b96:	00400793          	li	a5,4
1c002b9a:	01671613          	slli	a2,a4,0x16
1c002b9e:	e6c7b7b3          	p.bclr	a5,a5,19,12
1c002ba2:	1c00f6b7          	lui	a3,0x1c00f
1c002ba6:	97b2                	add	a5,a5,a2
1c002ba8:	f8c68693          	addi	a3,a3,-116 # 1c00ef8c <_bss_end>
1c002bac:	01c00713          	li	a4,28
1c002bb0:	8f95                	sub	a5,a5,a3
1c002bb2:	00f685b3          	add	a1,a3,a5
1c002bb6:	02e04963          	bgtz	a4,1c002be8 <__rt_init_cluster_data+0x56>
1c002bba:	1c00f7b7          	lui	a5,0x1c00f
1c002bbe:	02800713          	li	a4,40
1c002bc2:	f6478793          	addi	a5,a5,-156 # 1c00ef64 <__rt_fc_cluster_data>
1c002bc6:	42e507b3          	p.mac	a5,a0,a4
1c002bca:	00201737          	lui	a4,0x201
1c002bce:	e0470713          	addi	a4,a4,-508 # 200e04 <__L2+0x180e04>
1c002bd2:	9732                	add	a4,a4,a2
1c002bd4:	cb98                	sw	a4,16(a5)
1c002bd6:	00400713          	li	a4,4
1c002bda:	e6c73733          	p.bclr	a4,a4,19,12
1c002bde:	9732                	add	a4,a4,a2
1c002be0:	0007a423          	sw	zero,8(a5)
1c002be4:	cbd8                	sw	a4,20(a5)
1c002be6:	8082                	ret
1c002be8:	0046a80b          	p.lw	a6,4(a3!)
1c002bec:	1771                	addi	a4,a4,-4
1c002bee:	0105a023          	sw	a6,0(a1)
1c002bf2:	b7c1                	j	1c002bb2 <__rt_init_cluster_data+0x20>

1c002bf4 <__rt_cluster_init>:
1c002bf4:	1c00f537          	lui	a0,0x1c00f
1c002bf8:	1141                	addi	sp,sp,-16
1c002bfa:	02800613          	li	a2,40
1c002bfe:	4581                	li	a1,0
1c002c00:	f6450513          	addi	a0,a0,-156 # 1c00ef64 <__rt_fc_cluster_data>
1c002c04:	c606                	sw	ra,12(sp)
1c002c06:	329000ef          	jal	ra,1c00372e <memset>
1c002c0a:	1c0055b7          	lui	a1,0x1c005
1c002c0e:	a7458593          	addi	a1,a1,-1420 # 1c004a74 <__rt_dma_2d>
1c002c12:	4525                	li	a0,9
1c002c14:	dedfe0ef          	jal	ra,1c001a00 <rt_irq_set_handler>
1c002c18:	1c0005b7          	lui	a1,0x1c000
1c002c1c:	17458593          	addi	a1,a1,372 # 1c000174 <__rt_remote_enqueue_event>
1c002c20:	4505                	li	a0,1
1c002c22:	ddffe0ef          	jal	ra,1c001a00 <rt_irq_set_handler>
1c002c26:	4789                	li	a5,2
1c002c28:	00204737          	lui	a4,0x204
1c002c2c:	00f72a23          	sw	a5,20(a4) # 204014 <__L2+0x184014>
1c002c30:	00f72423          	sw	a5,8(a4)
1c002c34:	1c0005b7          	lui	a1,0x1c000
1c002c38:	13c58593          	addi	a1,a1,316 # 1c00013c <__rt_bridge_enqueue_event>
1c002c3c:	4511                	li	a0,4
1c002c3e:	dc3fe0ef          	jal	ra,1c001a00 <rt_irq_set_handler>
1c002c42:	47c1                	li	a5,16
1c002c44:	00204737          	lui	a4,0x204
1c002c48:	00f72a23          	sw	a5,20(a4) # 204014 <__L2+0x184014>
1c002c4c:	00f72423          	sw	a5,8(a4)
1c002c50:	40b2                	lw	ra,12(sp)
1c002c52:	4501                	li	a0,0
1c002c54:	0141                	addi	sp,sp,16
1c002c56:	8082                	ret

1c002c58 <__rt_cluster_mount_step>:
{
1c002c58:	7179                	addi	sp,sp,-48
1c002c5a:	ce4e                	sw	s3,28(sp)
1c002c5c:	cc52                	sw	s4,24(sp)
      plp_ctrl_core_bootaddr_set_remote(cid, i, ((int)_start) & 0xffffff00);
1c002c5e:	1c000a37          	lui	s4,0x1c000
  return (void *)(ARCHI_CLUSTER_GLOBAL_ADDR(cid) + ((int)data & 0xFFF));
1c002c62:	00400993          	li	s3,4
1c002c66:	080a0a13          	addi	s4,s4,128 # 1c000080 <_start>
{
1c002c6a:	d422                	sw	s0,40(sp)
1c002c6c:	d606                	sw	ra,44(sp)
1c002c6e:	d226                	sw	s1,36(sp)
1c002c70:	d04a                	sw	s2,32(sp)
1c002c72:	ca56                	sw	s5,20(sp)
1c002c74:	842a                	mv	s0,a0
1c002c76:	e6c9b9b3          	p.bclr	s3,s3,19,12
      plp_ctrl_core_bootaddr_set_remote(cid, i, ((int)_start) & 0xffffff00);
1c002c7a:	ce0a3a33          	p.bclr	s4,s4,7,0
    switch (cluster->state)
1c002c7e:	4c5c                	lw	a5,28(s0)
1c002c80:	0217ac63          	p.beqimm	a5,1,1c002cb8 <__rt_cluster_mount_step+0x60>
1c002c84:	0c27a363          	p.beqimm	a5,2,1c002d4a <__rt_cluster_mount_step+0xf2>
1c002c88:	efcd                	bnez	a5,1c002d42 <__rt_cluster_mount_step+0xea>
  int cid = cluster->cid;
1c002c8a:	5018                	lw	a4,32(s0)
  cluster->powered_up = 0;
1c002c8c:	00042c23          	sw	zero,24(s0)
  if (cid == 0)
1c002c90:	e719                	bnez	a4,1c002c9e <__rt_cluster_mount_step+0x46>
    cluster->powered_up = __rt_pmu_cluster_power_up(cluster->mount_event, &pending);
1c002c92:	5048                	lw	a0,36(s0)
1c002c94:	006c                	addi	a1,sp,12
    int pending = 0;
1c002c96:	c602                	sw	zero,12(sp)
    cluster->powered_up = __rt_pmu_cluster_power_up(cluster->mount_event, &pending);
1c002c98:	3b0d                	jal	1c0029ca <__rt_pmu_cluster_power_up>
    return pending;
1c002c9a:	47b2                	lw	a5,12(sp)
    cluster->powered_up = __rt_pmu_cluster_power_up(cluster->mount_event, &pending);
1c002c9c:	cc08                	sw	a0,24(s0)
    cluster->state++;
1c002c9e:	4c58                	lw	a4,28(s0)
1c002ca0:	0705                	addi	a4,a4,1
1c002ca2:	cc58                	sw	a4,28(s0)
  while(!end)
1c002ca4:	dfe9                	beqz	a5,1c002c7e <__rt_cluster_mount_step+0x26>
}
1c002ca6:	50b2                	lw	ra,44(sp)
1c002ca8:	5422                	lw	s0,40(sp)
1c002caa:	5492                	lw	s1,36(sp)
1c002cac:	5902                	lw	s2,32(sp)
1c002cae:	49f2                	lw	s3,28(sp)
1c002cb0:	4a62                	lw	s4,24(sp)
1c002cb2:	4ad2                	lw	s5,20(sp)
1c002cb4:	6145                	addi	sp,sp,48
1c002cb6:	8082                	ret
1c002cb8:	02042a83          	lw	s5,32(s0)
1c002cbc:	040a8493          	addi	s1,s5,64
1c002cc0:	04da                	slli	s1,s1,0x16
1c002cc2:	009987b3          	add	a5,s3,s1
  pool->first_call_fc_for_cl = NULL;
1c002cc6:	0007a023          	sw	zero,0(a5)
  pool->first_call_fc = NULL;
1c002cca:	0007a223          	sw	zero,4(a5)
  pool->last_call_fc = NULL;
1c002cce:	0007a423          	sw	zero,8(a5)
  __rt_cluster_fc_task_lock = 0;
1c002cd2:	100007b7          	lui	a5,0x10000
1c002cd6:	0007ae23          	sw	zero,28(a5) # 1000001c <__rt_cluster_fc_task_lock>
  return __rt_platform;
1c002cda:	1c0057b7          	lui	a5,0x1c005
    if (rt_platform() != ARCHI_PLATFORM_FPGA)
1c002cde:	0947a783          	lw	a5,148(a5) # 1c005094 <__rt_platform>
1c002ce2:	0017ae63          	p.beqimm	a5,1,1c002cfe <__rt_cluster_mount_step+0xa6>
      int init_freq = __rt_fll_init(__RT_FLL_CL);
1c002ce6:	4505                	li	a0,1
1c002ce8:	3d41                	jal	1c002b78 <__rt_fll_init>

  #if defined(FLL_VERSION)

  static inline int rt_freq_get(rt_freq_domain_e domain)
  {
    return __rt_freq_domains[domain];
1c002cea:	1c00f7b7          	lui	a5,0x1c00f
1c002cee:	f5478793          	addi	a5,a5,-172 # 1c00ef54 <__rt_freq_domains>
1c002cf2:	43cc                	lw	a1,4(a5)
      if (freq)
1c002cf4:	c9a9                	beqz	a1,1c002d46 <__rt_cluster_mount_step+0xee>
    return rt_freq_set_and_get(domain, freq, NULL);
1c002cf6:	4601                	li	a2,0
1c002cf8:	4505                	li	a0,1
1c002cfa:	9ebff0ef          	jal	ra,1c0026e4 <rt_freq_set_and_get>
    IP_WRITE(ARCHI_CLUSTER_PERIPHERALS_GLOBAL_ADDR(cid), ARCHI_CLUSTER_CTRL_CLUSTER_CLK_GATE, 1);
1c002cfe:	00200937          	lui	s2,0x200
1c002d02:	01248733          	add	a4,s1,s2
1c002d06:	4785                	li	a5,1
1c002d08:	02f72023          	sw	a5,32(a4)
    __rt_init_cluster_data(cid);
1c002d0c:	8556                	mv	a0,s5
1c002d0e:	3551                	jal	1c002b92 <__rt_init_cluster_data>
    __rt_alloc_init_l1(cid);
1c002d10:	8556                	mv	a0,s5
1c002d12:	ce2ff0ef          	jal	ra,1c0021f4 <__rt_alloc_init_l1>
  pulp_write32(ARCHI_CLUSTER_PERIPHERALS_GLOBAL_ADDR(cid) + ARCHI_ICACHE_CTRL_OFFSET, 0xFFFFFFFF);
1c002d16:	002017b7          	lui	a5,0x201
1c002d1a:	40078793          	addi	a5,a5,1024 # 201400 <__L2+0x181400>
1c002d1e:	577d                	li	a4,-1
1c002d20:	04090913          	addi	s2,s2,64 # 200040 <__L2+0x180040>
1c002d24:	00e4e7a3          	p.sw	a4,a5(s1)
1c002d28:	9926                	add	s2,s2,s1
1c002d2a:	008250fb          	lp.setupi	x1,8,1c002d32 <__rt_cluster_mount_step+0xda>
  pulp_write32(ARCHI_CLUSTER_PERIPHERALS_GLOBAL_ADDR(cid) + ARCHI_CLUSTER_CTRL_OFFSET + 0x40 + core*4, bootAddr);
1c002d2e:	0149222b          	p.sw	s4,4(s2!)
1c002d32:	0001                	nop
  pulp_write32(ARCHI_CLUSTER_PERIPHERALS_GLOBAL_ADDR(cid) + ARCHI_CLUSTER_CTRL_OFFSET + EOC_FETCH_OFFSET, mask);
1c002d34:	002007b7          	lui	a5,0x200
1c002d38:	07a1                	addi	a5,a5,8
1c002d3a:	0ff00713          	li	a4,255
1c002d3e:	00e4e7a3          	p.sw	a4,a5(s1)
    switch (cluster->state)
1c002d42:	4781                	li	a5,0
1c002d44:	bfa9                	j	1c002c9e <__rt_cluster_mount_step+0x46>
    __rt_freq_domains[domain] = freq;
1c002d46:	c3c8                	sw	a0,4(a5)
1c002d48:	bf5d                	j	1c002cfe <__rt_cluster_mount_step+0xa6>
        __rt_event_restore(cluster->mount_event);
1c002d4a:	505c                	lw	a5,36(s0)
  event->implem.pending = event->implem.saved_pending;
1c002d4c:	5bd8                	lw	a4,52(a5)
1c002d4e:	d3d8                	sw	a4,36(a5)
  event->arg[0] = (uintptr_t)event->implem.saved_callback;
1c002d50:	57d8                	lw	a4,44(a5)
1c002d52:	c3d8                	sw	a4,4(a5)
  event->arg[1] = (uintptr_t)event->implem.saved_arg;
1c002d54:	5b98                	lw	a4,48(a5)
1c002d56:	c798                	sw	a4,8(a5)
  event->implem.saved_pending = 0;
1c002d58:	0207aa23          	sw	zero,52(a5) # 200034 <__L2+0x180034>
        __rt_event_enqueue(cluster->mount_event);
1c002d5c:	505c                	lw	a5,36(s0)
  if (sched->first) {
1c002d5e:	01c02603          	lw	a2,28(zero) # 1c <_l1_preload_size>
1c002d62:	01c00693          	li	a3,28
  event->next = NULL;
1c002d66:	0007a023          	sw	zero,0(a5)
  if (sched->first) {
1c002d6a:	c611                	beqz	a2,1c002d76 <__rt_cluster_mount_step+0x11e>
    sched->last->next = event;
1c002d6c:	42d8                	lw	a4,4(a3)
1c002d6e:	c31c                	sw	a5,0(a4)
  sched->last = event;
1c002d70:	c2dc                	sw	a5,4(a3)
        end = 1;
1c002d72:	4785                	li	a5,1
1c002d74:	b72d                	j	1c002c9e <__rt_cluster_mount_step+0x46>
    sched->first = event;
1c002d76:	00f02e23          	sw	a5,28(zero) # 1c <_l1_preload_size>
1c002d7a:	bfdd                	j	1c002d70 <__rt_cluster_mount_step+0x118>

1c002d7c <pi_cluster_conf_init>:
  conf->id = 0;
1c002d7c:	00052223          	sw	zero,4(a0)
}
1c002d80:	8082                	ret

1c002d82 <pi_cluster_open>:
{
1c002d82:	1101                	addi	sp,sp,-32
1c002d84:	ce06                	sw	ra,28(sp)
1c002d86:	cc22                	sw	s0,24(sp)
1c002d88:	ca26                	sw	s1,20(sp)
1c002d8a:	c84a                	sw	s2,16(sp)
1c002d8c:	c64e                	sw	s3,12(sp)
  return __builtin_pulp_read_then_spr_bit_clr(reg, val);
1c002d8e:	30047973          	csrrci	s2,mstatus,8
  struct pi_cluster_conf *conf = (struct pi_cluster_conf *)cluster_dev->config;
1c002d92:	00452983          	lw	s3,4(a0)
  cluster_dev->data = (void *)&__rt_fc_cluster_data[cid];
1c002d96:	1c00f4b7          	lui	s1,0x1c00f
1c002d9a:	02800793          	li	a5,40
  int cid = conf->id;
1c002d9e:	0049a703          	lw	a4,4(s3)
  cluster_dev->data = (void *)&__rt_fc_cluster_data[cid];
1c002da2:	f6448493          	addi	s1,s1,-156 # 1c00ef64 <__rt_fc_cluster_data>
1c002da6:	42f704b3          	p.mac	s1,a4,a5
1c002daa:	c504                	sw	s1,8(a0)
  rt_event_t *event = __rt_wait_event_prepare_blocking();
1c002dac:	9c2ff0ef          	jal	ra,1c001f6e <__rt_wait_event_prepare_blocking>
  if (rt_is_fc() || (cid && !rt_has_fc()))
1c002db0:	02000713          	li	a4,32
  asm("csrr %0, 0x014" : "=r" (hart_id) : );
1c002db4:	014027f3          	csrr	a5,uhartid
  return (hart_id >> 5) & 0x3f;
1c002db8:	ca5797b3          	p.extractu	a5,a5,5,5
  rt_event_t *event = __rt_wait_event_prepare_blocking();
1c002dbc:	842a                	mv	s0,a0
  if (rt_is_fc() || (cid && !rt_has_fc()))
1c002dbe:	04e79463          	bne	a5,a4,1c002e06 <pi_cluster_open+0x84>
  event->implem.saved_pending = event->implem.pending;
1c002dc2:	515c                	lw	a5,36(a0)
    cluster->state = RT_CLUSTER_MOUNT_START;
1c002dc4:	0004ae23          	sw	zero,28(s1)
    cluster->mount_event = event;
1c002dc8:	d0c8                	sw	a0,36(s1)
1c002dca:	d95c                	sw	a5,52(a0)
  event->implem.saved_callback = (void (*)(void *))event->arg[0];
1c002dcc:	415c                	lw	a5,4(a0)
  event->implem.keep = 0;
1c002dce:	02052423          	sw	zero,40(a0)
  event->implem.saved_callback = (void (*)(void *))event->arg[0];
1c002dd2:	d55c                	sw	a5,44(a0)
  event->implem.saved_arg = (void *)event->arg[1];
1c002dd4:	451c                	lw	a5,8(a0)
  event->arg[1] = (uintptr_t)arg;
1c002dd6:	c504                	sw	s1,8(a0)
  event->implem.saved_arg = (void *)event->arg[1];
1c002dd8:	d91c                	sw	a5,48(a0)
  event->arg[0] = (uintptr_t)callback;
1c002dda:	1c0037b7          	lui	a5,0x1c003
1c002dde:	c5878793          	addi	a5,a5,-936 # 1c002c58 <__rt_cluster_mount_step>
1c002de2:	c15c                	sw	a5,4(a0)
  event->implem.pending = 1;  
1c002de4:	4785                	li	a5,1
1c002de6:	d15c                	sw	a5,36(a0)
    __rt_cluster_mount_step((void *)cluster);
1c002de8:	8526                	mv	a0,s1
1c002dea:	35bd                	jal	1c002c58 <__rt_cluster_mount_step>
  __rt_wait_event(event);
1c002dec:	8522                	mv	a0,s0
1c002dee:	ad0ff0ef          	jal	ra,1c0020be <__rt_wait_event>
  __builtin_pulp_spr_write(reg, val);
1c002df2:	30091073          	csrw	mstatus,s2
}
1c002df6:	40f2                	lw	ra,28(sp)
1c002df8:	4462                	lw	s0,24(sp)
1c002dfa:	44d2                	lw	s1,20(sp)
1c002dfc:	4942                	lw	s2,16(sp)
1c002dfe:	49b2                	lw	s3,12(sp)
1c002e00:	4501                	li	a0,0
1c002e02:	6105                	addi	sp,sp,32
1c002e04:	8082                	ret
  if (__rt_cluster_mount(&__rt_fc_cluster_data[cid], conf->id, 0, event))
1c002e06:	0049a483          	lw	s1,4(s3)
    __rt_init_cluster_data(cid);
1c002e0a:	8526                	mv	a0,s1
1c002e0c:	3359                	jal	1c002b92 <__rt_init_cluster_data>
1c002e0e:	04048513          	addi	a0,s1,64
1c002e12:	002017b7          	lui	a5,0x201
1c002e16:	055a                	slli	a0,a0,0x16
1c002e18:	40078793          	addi	a5,a5,1024 # 201400 <__L2+0x181400>
1c002e1c:	577d                	li	a4,-1
1c002e1e:	00e567a3          	p.sw	a4,a5(a0)
1c002e22:	002007b7          	lui	a5,0x200
      plp_ctrl_core_bootaddr_set_remote(cid, i, ((int)_start) & 0xffffff00);
1c002e26:	1c000737          	lui	a4,0x1c000
1c002e2a:	04478793          	addi	a5,a5,68 # 200044 <__L2+0x180044>
1c002e2e:	08070713          	addi	a4,a4,128 # 1c000080 <_start>
1c002e32:	97aa                	add	a5,a5,a0
1c002e34:	ce073733          	p.bclr	a4,a4,7,0
1c002e38:	007250fb          	lp.setupi	x1,7,1c002e40 <pi_cluster_open+0xbe>
  pulp_write32(ARCHI_CLUSTER_PERIPHERALS_GLOBAL_ADDR(cid) + ARCHI_CLUSTER_CTRL_OFFSET + 0x40 + core*4, bootAddr);
1c002e3c:	00e7a22b          	p.sw	a4,4(a5!)
1c002e40:	0001                	nop
  pulp_write32(ARCHI_CLUSTER_PERIPHERALS_GLOBAL_ADDR(cid) + ARCHI_CLUSTER_CTRL_OFFSET + EOC_FETCH_OFFSET, mask);
1c002e42:	002007b7          	lui	a5,0x200
1c002e46:	07a1                	addi	a5,a5,8
1c002e48:	577d                	li	a4,-1
1c002e4a:	00e567a3          	p.sw	a4,a5(a0)
    rt_event_push(event);
1c002e4e:	8522                	mv	a0,s0
1c002e50:	9e6ff0ef          	jal	ra,1c002036 <rt_event_push>
1c002e54:	bf61                	j	1c002dec <pi_cluster_open+0x6a>

1c002e56 <pi_cluster_close>:
  __rt_cluster_unmount(data->cid, 0, NULL);
1c002e56:	451c                	lw	a5,8(a0)
{
1c002e58:	1101                	addi	sp,sp,-32
1c002e5a:	cc22                	sw	s0,24(sp)
  __rt_cluster_unmount(data->cid, 0, NULL);
1c002e5c:	5380                	lw	s0,32(a5)
1c002e5e:	1c0057b7          	lui	a5,0x1c005
    if (rt_platform() != ARCHI_PLATFORM_FPGA)
1c002e62:	0947a783          	lw	a5,148(a5) # 1c005094 <__rt_platform>
{
1c002e66:	ce06                	sw	ra,28(sp)
    if (rt_platform() != ARCHI_PLATFORM_FPGA)
1c002e68:	0017a463          	p.beqimm	a5,1,1c002e70 <pi_cluster_close+0x1a>
      __rt_fll_deinit(__RT_FLL_CL);
1c002e6c:	4505                	li	a0,1
1c002e6e:	3b31                	jal	1c002b8a <__rt_fll_deinit>
    int pending = 0;
1c002e70:	c602                	sw	zero,12(sp)
  if (cid == 0) __rt_pmu_cluster_power_down(event, &pending);
1c002e72:	e409                	bnez	s0,1c002e7c <pi_cluster_close+0x26>
1c002e74:	006c                	addi	a1,sp,12
1c002e76:	4501                	li	a0,0
1c002e78:	947ff0ef          	jal	ra,1c0027be <__rt_pmu_cluster_power_down>
}
1c002e7c:	40f2                	lw	ra,28(sp)
1c002e7e:	4462                	lw	s0,24(sp)
1c002e80:	4501                	li	a0,0
1c002e82:	6105                	addi	sp,sp,32
1c002e84:	8082                	ret

1c002e86 <__rt_cluster_push_fc_event>:
  while (rt_tas_lock_32((int)&__rt_cluster_fc_task_lock) == -1)
1c002e86:	100006b7          	lui	a3,0x10000
1c002e8a:	01c68693          	addi	a3,a3,28 # 1000001c <__rt_cluster_fc_task_lock>
  return addr | (1<<ARCHI_L1_TAS_BIT);
1c002e8e:	c146c5b3          	p.bset	a1,a3,0,20
  ARCHI_WRITE(ARCHI_EU_DEMUX_ADDR, EU_CORE_MASK_OR, evtMask);
1c002e92:	4709                	li	a4,2
1c002e94:	002047b7          	lui	a5,0x204
  signed int result = *(volatile signed int *)__rt_tas_addr(addr);
1c002e98:	4190                	lw	a2,0(a1)
1c002e9a:	05f62063          	p.beqimm	a2,-1,1c002eda <__rt_cluster_push_fc_event+0x54>
  asm("csrr %0, 0x014" : "=r" (hart_id) : );
1c002e9e:	01402773          	csrr	a4,uhartid
  while(data->events != NULL)
1c002ea2:	1c00f7b7          	lui	a5,0x1c00f
  return (hart_id >> 5) & 0x3f;
1c002ea6:	8715                	srai	a4,a4,0x5
1c002ea8:	f2673733          	p.bclr	a4,a4,25,6
1c002eac:	02800613          	li	a2,40
1c002eb0:	f6478793          	addi	a5,a5,-156 # 1c00ef64 <__rt_fc_cluster_data>
1c002eb4:	42c707b3          	p.mac	a5,a4,a2
1c002eb8:	4609                	li	a2,2
1c002eba:	00204737          	lui	a4,0x204
1c002ebe:	43cc                	lw	a1,4(a5)
1c002ec0:	e585                	bnez	a1,1c002ee8 <__rt_cluster_push_fc_event+0x62>
  data->events = event;
1c002ec2:	c3c8                	sw	a0,4(a5)
  pulp_write32(evtAddr, coreSet);
1c002ec4:	1b2017b7          	lui	a5,0x1b201
1c002ec8:	e007a223          	sw	zero,-508(a5) # 1b200e04 <__fc_tcdm_end+0x1ffa34>
  *(volatile signed int *)addr = value;
1c002ecc:	0006a023          	sw	zero,0(a3)
1c002ed0:	002047b7          	lui	a5,0x204
1c002ed4:	1007a223          	sw	zero,260(a5) # 204104 <__L2+0x184104>
}
1c002ed8:	8082                	ret
  ARCHI_WRITE(ARCHI_EU_DEMUX_ADDR, EU_CORE_MASK_OR, evtMask);
1c002eda:	00e7a423          	sw	a4,8(a5)
  value = __builtin_pulp_event_unit_read_fenced((int *)base, offset);
1c002ede:	03c7e603          	p.elw	a2,60(a5)
  ARCHI_WRITE(ARCHI_EU_DEMUX_ADDR, EU_CORE_MASK_AND, evtMask);
1c002ee2:	00e7a223          	sw	a4,4(a5)
1c002ee6:	bf4d                	j	1c002e98 <__rt_cluster_push_fc_event+0x12>
  ARCHI_WRITE(ARCHI_EU_DEMUX_ADDR, EU_CORE_MASK_OR, evtMask);
1c002ee8:	00c72423          	sw	a2,8(a4) # 204008 <__L2+0x184008>
  value = __builtin_pulp_event_unit_read_fenced((int *)base, offset);
1c002eec:	03c76583          	p.elw	a1,60(a4)
  ARCHI_WRITE(ARCHI_EU_DEMUX_ADDR, EU_CORE_MASK_AND, evtMask);
1c002ef0:	00c72223          	sw	a2,4(a4)
1c002ef4:	b7e9                	j	1c002ebe <__rt_cluster_push_fc_event+0x38>

1c002ef6 <__rt_cluster_new>:
  err |= __rt_cbsys_add(RT_CBSYS_START, __rt_cluster_init, NULL);
1c002ef6:	1c0035b7          	lui	a1,0x1c003
{
1c002efa:	1141                	addi	sp,sp,-16
  err |= __rt_cbsys_add(RT_CBSYS_START, __rt_cluster_init, NULL);
1c002efc:	4601                	li	a2,0
1c002efe:	bf458593          	addi	a1,a1,-1036 # 1c002bf4 <__rt_cluster_init>
1c002f02:	4501                	li	a0,0
{
1c002f04:	c606                	sw	ra,12(sp)
  err |= __rt_cbsys_add(RT_CBSYS_START, __rt_cluster_init, NULL);
1c002f06:	c67fe0ef          	jal	ra,1c001b6c <__rt_cbsys_add>
  if (err) rt_fatal("Unable to initialize time driver\n");
1c002f0a:	c10d                	beqz	a0,1c002f2c <__rt_cluster_new+0x36>
  asm("csrr %0, 0x014" : "=r" (hart_id) : );
1c002f0c:	01402673          	csrr	a2,uhartid
1c002f10:	1c005537          	lui	a0,0x1c005
  return (hart_id >> 5) & 0x3f;
1c002f14:	40565593          	srai	a1,a2,0x5
1c002f18:	f265b5b3          	p.bclr	a1,a1,25,6
1c002f1c:	f4563633          	p.bclr	a2,a2,26,5
1c002f20:	dc050513          	addi	a0,a0,-576 # 1c004dc0 <__clz_tab+0x1b4>
1c002f24:	315000ef          	jal	ra,1c003a38 <printf>
1c002f28:	27d000ef          	jal	ra,1c0039a4 <abort>
}
1c002f2c:	40b2                	lw	ra,12(sp)
1c002f2e:	0141                	addi	sp,sp,16
1c002f30:	8082                	ret

1c002f32 <__rt_cluster_pulpos_emu_init>:
static struct pi_device *__rt_fc_cluster_device;
static struct pi_cluster_task __rt_pulpos_emu_global_cluster_task;


static void __attribute__((constructor)) __rt_cluster_pulpos_emu_init()
{
1c002f32:	1141                	addi	sp,sp,-16
  int nb_cluster = rt_nb_cluster();

  __rt_fc_cluster_device = rt_alloc(RT_ALLOC_FC_DATA, sizeof(struct pi_device)*nb_cluster);
1c002f34:	45b1                	li	a1,12
1c002f36:	4505                	li	a0,1
{
1c002f38:	c606                	sw	ra,12(sp)
  __rt_fc_cluster_device = rt_alloc(RT_ALLOC_FC_DATA, sizeof(struct pi_device)*nb_cluster);
1c002f3a:	a8cff0ef          	jal	ra,1c0021c6 <rt_alloc>
1c002f3e:	1c0057b7          	lui	a5,0x1c005
1c002f42:	2aa7a623          	sw	a0,684(a5) # 1c0052ac <__rt_fc_cluster_device>
  if (__rt_fc_cluster_device == NULL) {
1c002f46:	e10d                	bnez	a0,1c002f68 <__rt_cluster_pulpos_emu_init+0x36>
  asm("csrr %0, 0x014" : "=r" (hart_id) : );
1c002f48:	01402673          	csrr	a2,uhartid
    rt_fatal("Unable to allocate cluster control structure\n");
1c002f4c:	1c005537          	lui	a0,0x1c005
  return (hart_id >> 5) & 0x3f;
1c002f50:	40565593          	srai	a1,a2,0x5
1c002f54:	f265b5b3          	p.bclr	a1,a1,25,6
1c002f58:	f4563633          	p.bclr	a2,a2,26,5
1c002f5c:	e0850513          	addi	a0,a0,-504 # 1c004e08 <__clz_tab+0x1fc>
1c002f60:	2d9000ef          	jal	ra,1c003a38 <printf>
1c002f64:	241000ef          	jal	ra,1c0039a4 <abort>
    return;
  }
}
1c002f68:	40b2                	lw	ra,12(sp)
1c002f6a:	0141                	addi	sp,sp,16
1c002f6c:	8082                	ret

1c002f6e <rt_cluster_call>:

int rt_cluster_call(rt_cluster_call_t *_call, int cid, void (*entry)(void *arg), void *arg, void *stacks, int master_stack_size, int slave_stack_size, int nb_pe, rt_event_t *event)
{
1c002f6e:	7139                	addi	sp,sp,-64
1c002f70:	d84a                	sw	s2,48(sp)
1c002f72:	4906                	lw	s2,64(sp)
1c002f74:	dc22                	sw	s0,56(sp)
1c002f76:	842e                	mv	s0,a1
1c002f78:	de06                	sw	ra,60(sp)
1c002f7a:	da26                	sw	s1,52(sp)
1c002f7c:	d64e                	sw	s3,44(sp)
  return __builtin_pulp_read_then_spr_bit_clr(reg, val);
1c002f7e:	300479f3          	csrrci	s3,mstatus,8
  __asm__ __volatile__ ("" : : : "memory");
1c002f82:	84ca                	mv	s1,s2
  if (likely(event != NULL)) return event;
1c002f84:	02091163          	bnez	s2,1c002fa6 <rt_cluster_call+0x38>
  return __rt_wait_event_prepare_blocking();
1c002f88:	ce32                	sw	a2,28(sp)
1c002f8a:	cc36                	sw	a3,24(sp)
1c002f8c:	ca3a                	sw	a4,20(sp)
1c002f8e:	c83e                	sw	a5,16(sp)
1c002f90:	c642                	sw	a6,12(sp)
1c002f92:	c446                	sw	a7,8(sp)
1c002f94:	fdbfe0ef          	jal	ra,1c001f6e <__rt_wait_event_prepare_blocking>
1c002f98:	48a2                	lw	a7,8(sp)
1c002f9a:	4832                	lw	a6,12(sp)
1c002f9c:	47c2                	lw	a5,16(sp)
1c002f9e:	4752                	lw	a4,20(sp)
1c002fa0:	46e2                	lw	a3,24(sp)
1c002fa2:	4672                	lw	a2,28(sp)
1c002fa4:	84aa                	mv	s1,a0
static inline struct pi_cluster_task *pi_cluster_task(struct pi_cluster_task *task, void (*entry)(void*), void *arg)
{
    #if defined(PMSIS_DRIVERS)
    memset(task, 0, sizeof(struct pi_cluster_task));
    #endif  /* PMSIS_DRIVERS */
    task->entry = entry;
1c002fa6:	1c0055b7          	lui	a1,0x1c005
1c002faa:	15058513          	addi	a0,a1,336 # 1c005150 <_edata>
  struct pi_cluster_task *task = &__rt_pulpos_emu_global_cluster_task;

  pi_cluster_task(task, entry, arg);

  task->stacks = stacks;
  task->stack_size = master_stack_size;
1c002fae:	c55c                	sw	a5,12(a0)
  task->slave_stack_size = slave_stack_size;
  task->nb_cores = nb_pe;

  if (pi_cluster_send_task_to_cl_async(&__rt_fc_cluster_device[cid], task, call_event))
1c002fb0:	1c0057b7          	lui	a5,0x1c005
1c002fb4:	c110                	sw	a2,0(a0)
    task->arg = arg;
1c002fb6:	c154                	sw	a3,4(a0)
  task->stacks = stacks;
1c002fb8:	c518                	sw	a4,8(a0)
  task->slave_stack_size = slave_stack_size;
1c002fba:	01052823          	sw	a6,16(a0)
  task->nb_cores = nb_pe;
1c002fbe:	01152a23          	sw	a7,20(a0)
  if (pi_cluster_send_task_to_cl_async(&__rt_fc_cluster_device[cid], task, call_event))
1c002fc2:	2ac7a503          	lw	a0,684(a5) # 1c0052ac <__rt_fc_cluster_device>
1c002fc6:	47b1                	li	a5,12
1c002fc8:	8626                	mv	a2,s1
1c002fca:	42f40533          	p.mac	a0,s0,a5
1c002fce:	15058593          	addi	a1,a1,336
1c002fd2:	2049                	jal	1c003054 <pi_cluster_send_task_to_cl_async>
1c002fd4:	842a                	mv	s0,a0
1c002fd6:	cd01                	beqz	a0,1c002fee <rt_cluster_call+0x80>
  __builtin_pulp_spr_write(reg, val);
1c002fd8:	30099073          	csrw	mstatus,s3
  {
  	rt_irq_restore(irq);
  	return -1;
1c002fdc:	547d                	li	s0,-1
  __rt_wait_event_check(event, call_event);

  rt_irq_restore(irq);

  return 0;
}
1c002fde:	8522                	mv	a0,s0
1c002fe0:	50f2                	lw	ra,60(sp)
1c002fe2:	5462                	lw	s0,56(sp)
1c002fe4:	54d2                	lw	s1,52(sp)
1c002fe6:	5942                	lw	s2,48(sp)
1c002fe8:	59b2                	lw	s3,44(sp)
1c002fea:	6121                	addi	sp,sp,64
1c002fec:	8082                	ret
  if (event == NULL) __rt_wait_event(call_event);
1c002fee:	00091563          	bnez	s2,1c002ff8 <rt_cluster_call+0x8a>
1c002ff2:	8526                	mv	a0,s1
1c002ff4:	8caff0ef          	jal	ra,1c0020be <__rt_wait_event>
1c002ff8:	30099073          	csrw	mstatus,s3
  return 0;
1c002ffc:	b7cd                	j	1c002fde <rt_cluster_call+0x70>

1c002ffe <rt_cluster_mount>:

void rt_cluster_mount(int mount, int cid, int flags, rt_event_t *event)
{
1c002ffe:	7139                	addi	sp,sp,-64
1c003000:	dc22                	sw	s0,56(sp)
1c003002:	da26                	sw	s1,52(sp)
1c003004:	d84a                	sw	s2,48(sp)
1c003006:	4431                	li	s0,12
1c003008:	1c0054b7          	lui	s1,0x1c005
1c00300c:	de06                	sw	ra,60(sp)
1c00300e:	d64e                	sw	s3,44(sp)
1c003010:	8936                	mv	s2,a3
1c003012:	02858433          	mul	s0,a1,s0
1c003016:	2ac48493          	addi	s1,s1,684 # 1c0052ac <__rt_fc_cluster_device>
  if (mount)
1c00301a:	c90d                	beqz	a0,1c00304c <rt_cluster_mount+0x4e>
  {
    struct pi_cluster_conf conf;
    pi_cluster_conf_init(&conf);
1c00301c:	0048                	addi	a0,sp,4
1c00301e:	89ae                	mv	s3,a1
1c003020:	3bb1                	jal	1c002d7c <pi_cluster_conf_init>
    pi_open_from_conf(&__rt_fc_cluster_device[cid], &conf);
1c003022:	4088                	lw	a0,0(s1)
1c003024:	004c                	addi	a1,sp,4
1c003026:	9522                	add	a0,a0,s0
1c003028:	9d5fe0ef          	jal	ra,1c0019fc <pi_open_from_conf>
    conf.id = cid;
    pi_cluster_open(&__rt_fc_cluster_device[cid]);
1c00302c:	4088                	lw	a0,0(s1)
    conf.id = cid;
1c00302e:	c44e                	sw	s3,8(sp)
    pi_cluster_open(&__rt_fc_cluster_device[cid]);
1c003030:	9522                	add	a0,a0,s0
1c003032:	3b81                	jal	1c002d82 <pi_cluster_open>
  else
  {
    pi_cluster_close(&__rt_fc_cluster_device[cid]);
  }

  if (event)
1c003034:	00090563          	beqz	s2,1c00303e <rt_cluster_mount+0x40>
    rt_event_push(event);
1c003038:	854a                	mv	a0,s2
1c00303a:	ffdfe0ef          	jal	ra,1c002036 <rt_event_push>
}
1c00303e:	50f2                	lw	ra,60(sp)
1c003040:	5462                	lw	s0,56(sp)
1c003042:	54d2                	lw	s1,52(sp)
1c003044:	5942                	lw	s2,48(sp)
1c003046:	59b2                	lw	s3,44(sp)
1c003048:	6121                	addi	sp,sp,64
1c00304a:	8082                	ret
    pi_cluster_close(&__rt_fc_cluster_device[cid]);
1c00304c:	4088                	lw	a0,0(s1)
1c00304e:	9522                	add	a0,a0,s0
1c003050:	3519                	jal	1c002e56 <pi_cluster_close>
1c003052:	b7cd                	j	1c003034 <rt_cluster_mount+0x36>

1c003054 <pi_cluster_send_task_to_cl_async>:
  }
}
#endif

int pi_cluster_send_task_to_cl_async(struct pi_device *device, struct pi_cluster_task *task, pi_task_t *async_task)
{
1c003054:	1101                	addi	sp,sp,-32
1c003056:	ca26                	sw	s1,20(sp)
  rt_fc_cluster_data_t *data = (rt_fc_cluster_data_t *)device->data;
1c003058:	4504                	lw	s1,8(a0)
{
1c00305a:	cc22                	sw	s0,24(sp)
1c00305c:	c256                	sw	s5,4(sp)
1c00305e:	842e                	mv	s0,a1
1c003060:	8ab2                	mv	s5,a2
1c003062:	ce06                	sw	ra,28(sp)
1c003064:	c84a                	sw	s2,16(sp)
1c003066:	c64e                	sw	s3,12(sp)
1c003068:	c452                	sw	s4,8(sp)
  return __builtin_pulp_read_then_spr_bit_clr(reg, val);
1c00306a:	30047a73          	csrrci	s4,mstatus,8

  int lock = __rt_cluster_lock(data);

  __rt_task_init(async_task);
  
  task->implem.pending = 1;
1c00306e:	4785                	li	a5,1

void __rt_event_sched_init();

static inline void __rt_task_init(pi_task_t *task)
{
  task->done = 0;
1c003070:	00060a23          	sb	zero,20(a2)
1c003074:	d1dc                	sw	a5,36(a1)

  rt_cluster_call_pool_t *cl_data = data->pool;

  if (task->nb_cores == 0)
1c003076:	49dc                	lw	a5,20(a1)
  rt_cluster_call_pool_t *cl_data = data->pool;
1c003078:	0144a983          	lw	s3,20(s1)
  if (task->nb_cores == 0)
1c00307c:	e399                	bnez	a5,1c003082 <pi_cluster_send_task_to_cl_async+0x2e>
    task->nb_cores = pi_cl_cluster_nb_cores();
1c00307e:	47a1                	li	a5,8
1c003080:	c9dc                	sw	a5,20(a1)

  if (task->stacks == NULL)
1c003082:	441c                	lw	a5,8(s0)
1c003084:	ef85                	bnez	a5,1c0030bc <pi_cluster_send_task_to_cl_async+0x68>
  {
    if (task->stack_size == 0)
1c003086:	445c                	lw	a5,12(s0)
1c003088:	eb81                	bnez	a5,1c003098 <pi_cluster_send_task_to_cl_async+0x44>
    {
      task->stack_size = 0x800;
1c00308a:	6785                	lui	a5,0x1
1c00308c:	80078793          	addi	a5,a5,-2048 # 800 <__rt_stack_size>
1c003090:	c45c                	sw	a5,12(s0)
      task->slave_stack_size = 0x400;
1c003092:	40000793          	li	a5,1024
1c003096:	c81c                	sw	a5,16(s0)
    }

    if (task->slave_stack_size == 0)
1c003098:	481c                	lw	a5,16(s0)
1c00309a:	00c42903          	lw	s2,12(s0)
1c00309e:	e399                	bnez	a5,1c0030a4 <pi_cluster_send_task_to_cl_async+0x50>
      task->slave_stack_size = task->stack_size;
1c0030a0:	01242823          	sw	s2,16(s0)

    int stacks_size = task->stack_size + task->slave_stack_size * (task->nb_cores - 1);
1c0030a4:	485c                	lw	a5,20(s0)
1c0030a6:	4818                	lw	a4,16(s0)

    if (data->stacks == NULL || stacks_size != data->stacks_size)
1c0030a8:	448c                	lw	a1,8(s1)
    int stacks_size = task->stack_size + task->slave_stack_size * (task->nb_cores - 1);
1c0030aa:	17fd                	addi	a5,a5,-1
1c0030ac:	42e78933          	p.mac	s2,a5,a4
    if (data->stacks == NULL || stacks_size != data->stacks_size)
1c0030b0:	c9b5                	beqz	a1,1c003124 <pi_cluster_send_task_to_cl_async+0xd0>
1c0030b2:	44d0                	lw	a2,12(s1)
1c0030b4:	05261f63          	bne	a2,s2,1c003112 <pi_cluster_send_task_to_cl_async+0xbe>

      if (data->stacks == NULL)
        goto error;
    }

    task->stacks = data->stacks;
1c0030b8:	449c                	lw	a5,8(s1)
1c0030ba:	c41c                	sw	a5,8(s0)

  task->completion_callback = async_task;
#ifdef ARCHI_HAS_CC
  task->implem.core_mask = (1<<(task->nb_cores-1)) - 1;
#else
  task->implem.core_mask = (1<<task->nb_cores) - 1;
1c0030bc:	4858                	lw	a4,20(s0)
1c0030be:	4785                	li	a5,1
  task->completion_callback = async_task;
1c0030c0:	01542c23          	sw	s5,24(s0)
  task->implem.core_mask = (1<<task->nb_cores) - 1;
1c0030c4:	00e797b3          	sll	a5,a5,a4
1c0030c8:	17fd                	addi	a5,a5,-1
1c0030ca:	d41c                	sw	a5,40(s0)
#endif

  task->next = NULL;
1c0030cc:	02042023          	sw	zero,32(s0)

  rt_compiler_barrier();

  if (cl_data->last_call_fc)
1c0030d0:	0089a783          	lw	a5,8(s3)
1c0030d4:	cbb5                	beqz	a5,1c003148 <pi_cluster_send_task_to_cl_async+0xf4>
  {
    cl_data->last_call_fc->next = task;
1c0030d6:	d380                	sw	s0,32(a5)
  else
  {
    cl_data->first_call_fc = task;
  }

  cl_data->last_call_fc = task;
1c0030d8:	0089a423          	sw	s0,8(s3)

  rt_compiler_barrier();
  
  if (cl_data->first_call_fc_for_cl == NULL)
1c0030dc:	0009a783          	lw	a5,0(s3)
1c0030e0:	e399                	bnez	a5,1c0030e6 <pi_cluster_send_task_to_cl_async+0x92>
    cl_data->first_call_fc_for_cl = task;
1c0030e2:	0089a023          	sw	s0,0(s3)
  return ARCHI_CLUSTER_PERIPHERALS_GLOBAL_ADDR(cluster) + ARCHI_EU_OFFSET + EU_SW_EVENTS_AREA_BASE + EU_CORE_TRIGG_SW_EVENT + (event << 2);
1c0030e6:	509c                	lw	a5,32(s1)
  pulp_write32(evtAddr, coreSet);
1c0030e8:	00201737          	lui	a4,0x201
1c0030ec:	e0470713          	addi	a4,a4,-508 # 200e04 <__L2+0x180e04>
  return ARCHI_CLUSTER_PERIPHERALS_GLOBAL_ADDR(cluster) + ARCHI_EU_OFFSET + EU_SW_EVENTS_AREA_BASE + EU_CORE_TRIGG_SW_EVENT + (event << 2);
1c0030f0:	04078793          	addi	a5,a5,64
1c0030f4:	07da                	slli	a5,a5,0x16
  pulp_write32(evtAddr, coreSet);
1c0030f6:	0007e723          	p.sw	zero,a4(a5)
  __builtin_pulp_spr_write(reg, val);
1c0030fa:	300a1073          	csrw	mstatus,s4
  rt_compiler_barrier();
  eu_evt_trig(eu_evt_trig_cluster_addr(data->cid, RT_CLUSTER_CALL_EVT), 0);

  __rt_cluster_unlock(data, lock);

  return 0;
1c0030fe:	4501                	li	a0,0

error:
  __rt_cluster_unlock(data, lock);
  return -1;
}
1c003100:	40f2                	lw	ra,28(sp)
1c003102:	4462                	lw	s0,24(sp)
1c003104:	44d2                	lw	s1,20(sp)
1c003106:	4942                	lw	s2,16(sp)
1c003108:	49b2                	lw	s3,12(sp)
1c00310a:	4a22                	lw	s4,8(sp)
1c00310c:	4a92                	lw	s5,4(sp)
1c00310e:	6105                	addi	sp,sp,32
1c003110:	8082                	ret

#if defined(ARCHI_HAS_L1)

extern rt_alloc_t *__rt_alloc_l1;

static inline rt_alloc_t *rt_alloc_l1(int cid) { return &__rt_alloc_l1[cid]; }
1c003112:	509c                	lw	a5,32(s1)
1c003114:	1c00f737          	lui	a4,0x1c00f
1c003118:	f4472503          	lw	a0,-188(a4) # 1c00ef44 <__rt_alloc_l1>
1c00311c:	078a                	slli	a5,a5,0x2
        rt_user_free(rt_alloc_l1(data->cid), data->stacks, data->stacks_size);
1c00311e:	953e                	add	a0,a0,a5
1c003120:	85aff0ef          	jal	ra,1c00217a <rt_user_free>
1c003124:	509c                	lw	a5,32(s1)
1c003126:	1c00f737          	lui	a4,0x1c00f
1c00312a:	f4472503          	lw	a0,-188(a4) # 1c00ef44 <__rt_alloc_l1>
1c00312e:	078a                	slli	a5,a5,0x2
      data->stacks_size = stacks_size;
1c003130:	0124a623          	sw	s2,12(s1)
      data->stacks = rt_user_alloc(rt_alloc_l1(data->cid), stacks_size);
1c003134:	85ca                	mv	a1,s2
1c003136:	953e                	add	a0,a0,a5
1c003138:	ffbfe0ef          	jal	ra,1c002132 <rt_user_alloc>
1c00313c:	c488                	sw	a0,8(s1)
      if (data->stacks == NULL)
1c00313e:	fd2d                	bnez	a0,1c0030b8 <pi_cluster_send_task_to_cl_async+0x64>
1c003140:	300a1073          	csrw	mstatus,s4
  return -1;
1c003144:	557d                	li	a0,-1
1c003146:	bf6d                	j	1c003100 <pi_cluster_send_task_to_cl_async+0xac>
    cl_data->first_call_fc = task;
1c003148:	0089a223          	sw	s0,4(s3)
1c00314c:	b771                	j	1c0030d8 <pi_cluster_send_task_to_cl_async+0x84>

1c00314e <pi_cluster_send_task_to_cl>:



int pi_cluster_send_task_to_cl(struct pi_device *device, struct pi_cluster_task *task)
{
1c00314e:	7175                	addi	sp,sp,-144
  return 0;
}

static inline struct pi_task *pi_task_block(struct pi_task *task)
{
  task->id = PI_TASK_NONE_ID;
1c003150:	4785                	li	a5,1
  pi_task_t fc_task;

  pi_task_block(&fc_task);

  if (pi_cluster_send_task_to_cl_async(device, task, &fc_task))
1c003152:	860a                	mv	a2,sp
{
1c003154:	c522                	sw	s0,136(sp)
1c003156:	c706                	sw	ra,140(sp)
1c003158:	c326                	sw	s1,132(sp)
1c00315a:	c14a                	sw	s2,128(sp)
1c00315c:	cc3e                	sw	a5,24(sp)
  task->arg[0] = (uint32_t)0;
1c00315e:	c202                	sw	zero,4(sp)
  task->implem.keep = 1;
1c003160:	d43e                	sw	a5,40(sp)
1c003162:	00010a23          	sb	zero,20(sp)
  if (pi_cluster_send_task_to_cl_async(device, task, &fc_task))
1c003166:	35fd                	jal	1c003054 <pi_cluster_send_task_to_cl_async>
  {
    return -1;
1c003168:	547d                	li	s0,-1
  if (pi_cluster_send_task_to_cl_async(device, task, &fc_task))
1c00316a:	e509                	bnez	a0,1c003174 <pi_cluster_send_task_to_cl+0x26>
1c00316c:	842a                	mv	s0,a0

#endif

static inline void pi_task_wait_on(struct pi_task *task)
{
  while(!task->done)
1c00316e:	01410783          	lb	a5,20(sp)
1c003172:	cb81                	beqz	a5,1c003182 <pi_cluster_send_task_to_cl+0x34>
  }

  pi_task_wait_on(&fc_task);

  return 0;
}
1c003174:	8522                	mv	a0,s0
1c003176:	40ba                	lw	ra,140(sp)
1c003178:	442a                	lw	s0,136(sp)
1c00317a:	449a                	lw	s1,132(sp)
1c00317c:	490a                	lw	s2,128(sp)
1c00317e:	6149                	addi	sp,sp,144
1c003180:	8082                	ret
  return __builtin_pulp_read_then_spr_bit_clr(reg, val);
1c003182:	30047973          	csrrci	s2,mstatus,8
  __rt_event_execute(__rt_event_get_current_sched(), wait);
1c003186:	4585                	li	a1,1
1c003188:	01c00513          	li	a0,28
1c00318c:	ecffe0ef          	jal	ra,1c00205a <__rt_event_execute>
  __builtin_pulp_spr_write(reg, val);
1c003190:	30091073          	csrw	mstatus,s2
1c003194:	bfe9                	j	1c00316e <pi_cluster_send_task_to_cl+0x20>

1c003196 <rt_padframe_set>:
  return __builtin_pulp_read_then_spr_bit_clr(reg, val);
1c003196:	300476f3          	csrrci	a3,mstatus,8

void rt_padframe_set(rt_padframe_profile_t *profile)
{
  int irq = rt_irq_disable();

  unsigned int *config = profile->config;
1c00319a:	4158                	lw	a4,4(a0)
  pulp_write32(ARCHI_APB_SOC_CTRL_ADDR + APB_SOC_PADFUN_OFFSET(id), value);
1c00319c:	1a1047b7          	lui	a5,0x1a104
1c0031a0:	14078613          	addi	a2,a5,320 # 1a104140 <__l1_end+0xa104120>

  for (int i=0; i<ARCHI_APB_SOC_PADFUN_NB; i++)
  {
    hal_apb_soc_padfun_set(i, config[i]);
1c0031a4:	430c                	lw	a1,0(a4)
1c0031a6:	c20c                	sw	a1,0(a2)
1c0031a8:	434c                	lw	a1,4(a4)
1c0031aa:	14478613          	addi	a2,a5,324
1c0031ae:	14878793          	addi	a5,a5,328
1c0031b2:	c20c                	sw	a1,0(a2)
1c0031b4:	4718                	lw	a4,8(a4)
1c0031b6:	c398                	sw	a4,0(a5)
  __builtin_pulp_spr_write(reg, val);
1c0031b8:	30069073          	csrw	mstatus,a3
  }

  rt_irq_restore(irq);
}
1c0031bc:	8082                	ret

1c0031be <__rt_padframe_init>:
  rt_padframe_set(&__rt_padframe_profiles[0]);
1c0031be:	1c005537          	lui	a0,0x1c005
1c0031c2:	fb850513          	addi	a0,a0,-72 # 1c004fb8 <__rt_padframe_profiles>
1c0031c6:	bfc1                	j	1c003196 <rt_padframe_set>

1c0031c8 <__rt_hyper_init>:
static void __attribute__((constructor)) __rt_hyper_init()
{
  __rt_hyper_end_task = NULL;
  __rt_hyper_current_task = NULL;
  __rt_hyper_pending_tasks = NULL;
  __pi_hyper_cluster_reqs_first = NULL;
1c0031c8:	1c005737          	lui	a4,0x1c005
  __rt_hyper_end_task = NULL;
1c0031cc:	30800793          	li	a5,776
  __pi_hyper_cluster_reqs_first = NULL;
1c0031d0:	2a072823          	sw	zero,688(a4) # 1c0052b0 <__pi_hyper_cluster_reqs_first>
  __rt_hyper_pending_emu_channel = -1;
1c0031d4:	577d                	li	a4,-1
1c0031d6:	d398                	sw	a4,32(a5)
  __rt_hyper_open_count = 0;
1c0031d8:	1c005737          	lui	a4,0x1c005
  __rt_hyper_end_task = NULL;
1c0031dc:	0007ac23          	sw	zero,24(a5)
  __rt_hyper_current_task = NULL;
1c0031e0:	0007ae23          	sw	zero,28(a5)
  __rt_hyper_pending_tasks = NULL;
1c0031e4:	0207ac23          	sw	zero,56(a5)
  __rt_hyper_open_count = 0;
1c0031e8:	2a072a23          	sw	zero,692(a4) # 1c0052b4 <__rt_hyper_open_count>
  __rt_hyper_pending_emu_size = 0;
1c0031ec:	0207a623          	sw	zero,44(a5)
  __rt_hyper_pending_emu_size_2d = 0;
1c0031f0:	0407a023          	sw	zero,64(a5)
#if PULP_CHIP == CHIP_GAP8_REVC
  rt_irq_set_handler(ARCHI_FC_IRQ_HYPER_RX, __rt_hyper_handler);
  rt_irq_set_handler(ARCHI_FC_IRQ_HYPER_TX, __rt_hyper_handler);
#endif
}
1c0031f4:	8082                	ret

1c0031f6 <__pi_gpio_handler>:
  }
}


void __pi_gpio_handler(void *arg)
{
1c0031f6:	1141                	addi	sp,sp,-16
  return pulp_read32(ARCHI_GPIO_ADDR + ARCHI_GPIO_INTTYPE(id));
}

static inline unsigned int hal_gpio_intstatus_get()
{
  return pulp_read32(ARCHI_GPIO_ADDR + ARCHI_GPIO_INTSTATUS);
1c0031f8:	1a1017b7          	lui	a5,0x1a101
  (void) arg;

  /* Retrieve IRQ status from GPIO. Handle task if needed. */
  pi_gpio_t *gpio = &__rt_gpio[0];
  gpio->irq_status = hal_gpio_intstatus_get();
1c0031fc:	1c0056b7          	lui	a3,0x1c005
{
1c003200:	c422                	sw	s0,8(sp)
1c003202:	4f80                	lw	s0,24(a5)
  gpio->irq_status = hal_gpio_intstatus_get();
1c003204:	17c68793          	addi	a5,a3,380 # 1c00517c <__rt_gpio>
{
1c003208:	c226                	sw	s1,4(sp)

  if (gpio->cb != NULL)
1c00320a:	4bc4                	lw	s1,20(a5)
{
1c00320c:	c606                	sw	ra,12(sp)
  gpio->irq_status = hal_gpio_intstatus_get();
1c00320e:	c780                	sw	s0,8(a5)
  if (gpio->cb != NULL)
1c003210:	cc91                	beqz	s1,1c00322c <__pi_gpio_handler+0x36>
    if (irq_mask & tmp_cb->pin_mask)
1c003212:	409c                	lw	a5,0(s1)
1c003214:	8fe1                	and	a5,a5,s0
1c003216:	c781                	beqz	a5,1c00321e <__pi_gpio_handler+0x28>
      tmp_cb->handler(tmp_cb->args);
1c003218:	40dc                	lw	a5,4(s1)
1c00321a:	4488                	lw	a0,8(s1)
1c00321c:	9782                	jalr	a5
    tmp_cb = tmp_cb->next;
1c00321e:	44c4                	lw	s1,12(s1)
  while (tmp_cb != NULL)
1c003220:	f8ed                	bnez	s1,1c003212 <__pi_gpio_handler+0x1c>
      }
      irq_mask = irq_mask >> 1;
      pin++;
    }
  }
}
1c003222:	40b2                	lw	ra,12(sp)
1c003224:	4422                	lw	s0,8(sp)
1c003226:	4492                	lw	s1,4(sp)
1c003228:	0141                	addi	sp,sp,16
1c00322a:	8082                	ret
1c00322c:	17c68693          	addi	a3,a3,380
    irq_mask = (gpio->irq_status & gpio->input_mask);
1c003230:	46dc                	lw	a5,12(a3)
    uint8_t pin = 0;
1c003232:	4701                	li	a4,0
    irq_mask = (gpio->irq_status & gpio->input_mask);
1c003234:	8fe1                	and	a5,a5,s0
1c003236:	01c00513          	li	a0,28
    while (irq_mask)
1c00323a:	d7e5                	beqz	a5,1c003222 <__pi_gpio_handler+0x2c>
      if (irq_mask & 0x1)
1c00323c:	fc17b633          	p.bclr	a2,a5,30,1
1c003240:	c615                	beqz	a2,1c00326c <__pi_gpio_handler+0x76>
        task = gpio->event_task[pin];
1c003242:	00470613          	addi	a2,a4,4
1c003246:	060a                	slli	a2,a2,0x2
1c003248:	9636                	add	a2,a2,a3
1c00324a:	4610                	lw	a2,8(a2)
        if (task != NULL)
1c00324c:	c205                	beqz	a2,1c00326c <__pi_gpio_handler+0x76>
  return __builtin_pulp_read_then_spr_bit_clr(reg, val);
1c00324e:	30047873          	csrrci	a6,mstatus,8
  if (sched->first) {
1c003252:	01c02883          	lw	a7,28(zero) # 1c <_l1_preload_size>
  event->next = NULL;
1c003256:	00062023          	sw	zero,0(a2)
  if (sched->first) {
1c00325a:	00088e63          	beqz	a7,1c003276 <__pi_gpio_handler+0x80>
    sched->last->next = event;
1c00325e:	00452883          	lw	a7,4(a0)
1c003262:	00c8a023          	sw	a2,0(a7) # 1a102000 <__l1_end+0xa101fe0>
  sched->last = event;
1c003266:	c150                	sw	a2,4(a0)
  __builtin_pulp_spr_write(reg, val);
1c003268:	30081073          	csrw	mstatus,a6
      pin++;
1c00326c:	0705                	addi	a4,a4,1
      irq_mask = irq_mask >> 1;
1c00326e:	8385                	srli	a5,a5,0x1
      pin++;
1c003270:	0ff77713          	andi	a4,a4,255
1c003274:	b7d9                	j	1c00323a <__pi_gpio_handler+0x44>
    sched->first = event;
1c003276:	00c02e23          	sw	a2,28(zero) # 1c <_l1_preload_size>
1c00327a:	b7f5                	j	1c003266 <__pi_gpio_handler+0x70>

1c00327c <__rt_i2s_resume>:
  conf->pdm = 1;
  conf->dual = 0;
  conf->width = 16;
  conf->id = -1;
  conf->flags = 0;
}
1c00327c:	1c00f7b7          	lui	a5,0x1c00f
1c003280:	4d18                	lw	a4,24(a0)
1c003282:	f547a783          	lw	a5,-172(a5) # 1c00ef54 <__rt_freq_domains>
1c003286:	068416b7          	lui	a3,0x6841
1c00328a:	90968693          	addi	a3,a3,-1783 # 6840909 <__L2+0x67c0909>
1c00328e:	02e7c7b3          	div	a5,a5,a4
1c003292:	02954703          	lbu	a4,41(a0)
1c003296:	177d                	addi	a4,a4,-1
1c003298:	c0874733          	p.bset	a4,a4,0,8
1c00329c:	17fd                	addi	a5,a5,-1
1c00329e:	8785                	srai	a5,a5,0x1
1c0032a0:	07c2                	slli	a5,a5,0x10
1c0032a2:	8fd9                	or	a5,a5,a4
1c0032a4:	02554703          	lbu	a4,37(a0)
1c0032a8:	9736                	add	a4,a4,a3
1c0032aa:	070a                	slli	a4,a4,0x2
1c0032ac:	c31c                	sw	a5,0(a4)
1c0032ae:	8082                	ret

1c0032b0 <__rt_i2s_setfreq_after>:
1c0032b0:	1141                	addi	sp,sp,-16
1c0032b2:	1c0057b7          	lui	a5,0x1c005
1c0032b6:	c422                	sw	s0,8(sp)
1c0032b8:	2b87a403          	lw	s0,696(a5) # 1c0052b8 <__rt_i2s_first>
1c0032bc:	c606                	sw	ra,12(sp)
1c0032be:	e411                	bnez	s0,1c0032ca <__rt_i2s_setfreq_after+0x1a>
1c0032c0:	40b2                	lw	ra,12(sp)
1c0032c2:	4422                	lw	s0,8(sp)
1c0032c4:	4501                	li	a0,0
1c0032c6:	0141                	addi	sp,sp,16
1c0032c8:	8082                	ret
1c0032ca:	02844783          	lbu	a5,40(s0)
1c0032ce:	c399                	beqz	a5,1c0032d4 <__rt_i2s_setfreq_after+0x24>
1c0032d0:	8522                	mv	a0,s0
1c0032d2:	376d                	jal	1c00327c <__rt_i2s_resume>
1c0032d4:	4c40                	lw	s0,28(s0)
1c0032d6:	b7e5                	j	1c0032be <__rt_i2s_setfreq_after+0xe>

1c0032d8 <__rt_i2s_setfreq_before>:
1c0032d8:	1c0057b7          	lui	a5,0x1c005
1c0032dc:	2b87a783          	lw	a5,696(a5) # 1c0052b8 <__rt_i2s_first>
1c0032e0:	068416b7          	lui	a3,0x6841
1c0032e4:	90968693          	addi	a3,a3,-1783 # 6840909 <__L2+0x67c0909>
1c0032e8:	e399                	bnez	a5,1c0032ee <__rt_i2s_setfreq_before+0x16>
1c0032ea:	4501                	li	a0,0
1c0032ec:	8082                	ret
1c0032ee:	0287c703          	lbu	a4,40(a5)
1c0032f2:	c719                	beqz	a4,1c003300 <__rt_i2s_setfreq_before+0x28>
1c0032f4:	0257c703          	lbu	a4,37(a5)
1c0032f8:	9736                	add	a4,a4,a3
1c0032fa:	070a                	slli	a4,a4,0x2
1c0032fc:	00072023          	sw	zero,0(a4)
1c003300:	4fdc                	lw	a5,28(a5)
1c003302:	b7dd                	j	1c0032e8 <__rt_i2s_setfreq_before+0x10>

1c003304 <__rt_i2s_init>:
{
  // In case the peripheral clock can dynamically change, we need to be notified
  // when this happens so that the I2S channels are stopped and resumed
  int err = 0;

  err |= __rt_cbsys_add(RT_CBSYS_PERIPH_SETFREQ_BEFORE, __rt_i2s_setfreq_before, NULL);
1c003304:	1c0035b7          	lui	a1,0x1c003
{
1c003308:	1141                	addi	sp,sp,-16
  err |= __rt_cbsys_add(RT_CBSYS_PERIPH_SETFREQ_BEFORE, __rt_i2s_setfreq_before, NULL);
1c00330a:	4601                	li	a2,0
1c00330c:	2d858593          	addi	a1,a1,728 # 1c0032d8 <__rt_i2s_setfreq_before>
1c003310:	4511                	li	a0,4
{
1c003312:	c606                	sw	ra,12(sp)
1c003314:	c422                	sw	s0,8(sp)
  err |= __rt_cbsys_add(RT_CBSYS_PERIPH_SETFREQ_BEFORE, __rt_i2s_setfreq_before, NULL);
1c003316:	857fe0ef          	jal	ra,1c001b6c <__rt_cbsys_add>

  err |= __rt_cbsys_add(RT_CBSYS_PERIPH_SETFREQ_AFTER, __rt_i2s_setfreq_after, NULL);
1c00331a:	1c0035b7          	lui	a1,0x1c003
  err |= __rt_cbsys_add(RT_CBSYS_PERIPH_SETFREQ_BEFORE, __rt_i2s_setfreq_before, NULL);
1c00331e:	842a                	mv	s0,a0
  err |= __rt_cbsys_add(RT_CBSYS_PERIPH_SETFREQ_AFTER, __rt_i2s_setfreq_after, NULL);
1c003320:	4601                	li	a2,0
1c003322:	2b058593          	addi	a1,a1,688 # 1c0032b0 <__rt_i2s_setfreq_after>
1c003326:	4515                	li	a0,5
1c003328:	845fe0ef          	jal	ra,1c001b6c <__rt_cbsys_add>
1c00332c:	8d41                	or	a0,a0,s0

  if (err) rt_fatal("Unable to initialize i2s driver\n");
1c00332e:	c105                	beqz	a0,1c00334e <__rt_i2s_init+0x4a>
  asm("csrr %0, 0x014" : "=r" (hart_id) : );
1c003330:	01402673          	csrr	a2,uhartid
1c003334:	1c005537          	lui	a0,0x1c005
  return (hart_id >> 5) & 0x3f;
1c003338:	40565593          	srai	a1,a2,0x5
1c00333c:	f265b5b3          	p.bclr	a1,a1,25,6
1c003340:	f4563633          	p.bclr	a2,a2,26,5
1c003344:	e7850513          	addi	a0,a0,-392 # 1c004e78 <__clz_tab+0x26c>
1c003348:	6f0000ef          	jal	ra,1c003a38 <printf>
1c00334c:	2da1                	jal	1c0039a4 <abort>
}
1c00334e:	40b2                	lw	ra,12(sp)
1c003350:	4422                	lw	s0,8(sp)
1c003352:	0141                	addi	sp,sp,16
1c003354:	8082                	ret

1c003356 <__rt_himax_init>:
    .capture   = &__rt_himax_capture
};

RT_FC_BOOT_CODE void __attribute__((constructor)) __rt_himax_init()
{
  camera_isAwaked = 0;
1c003356:	1b0017b7          	lui	a5,0x1b001
1c00335a:	ba078c23          	sb	zero,-1096(a5) # 1b000bb8 <camera_isAwaked>
}
1c00335e:	8082                	ret

1c003360 <__rt_rtc_init>:
}


RT_FC_BOOT_CODE void __attribute__((constructor)) __rt_rtc_init()
{
  __rtc_handler = NULL;
1c003360:	35800793          	li	a5,856
1c003364:	0207ac23          	sw	zero,56(a5)
  dev_rtc.open_count = 0;
1c003368:	02078823          	sb	zero,48(a5)
  __rt_rtc_init_done = 0;
1c00336c:	0207aa23          	sw	zero,52(a5)
}
1c003370:	8082                	ret

1c003372 <__rt_spim_init>:

RT_FC_BOOT_CODE void __attribute__((constructor)) __rt_spim_init()
{
  for (int i=0; i<ARCHI_UDMA_NB_SPIM; i++)
  {
    __rt_spim_open_count[i] = 0;
1c003372:	1c0057b7          	lui	a5,0x1c005
1c003376:	2bc78793          	addi	a5,a5,700 # 1c0052bc <__rt_spim_open_count>
1c00337a:	0007a023          	sw	zero,0(a5)
1c00337e:	0007a223          	sw	zero,4(a5)
  }
}
1c003382:	8082                	ret

1c003384 <__rt_io_end_of_flush>:
  if (rt_iodev() == RT_IODEV_UART)
  {
    __rt_io_start(NULL);
    __rt_cbsys_add(RT_CBSYS_STOP, __rt_io_stop, NULL);
    __rt_io_pending_flush = 0;
    rt_event_alloc(NULL, 1);
1c003384:	1c0057b7          	lui	a5,0x1c005
1c003388:	2c07a423          	sw	zero,712(a5) # 1c0052c8 <__rt_io_pending_flush>
1c00338c:	00052c23          	sw	zero,24(a0)
1c003390:	8082                	ret

1c003392 <__rt_io_uart_wait_req>:
1c003392:	1141                	addi	sp,sp,-16
1c003394:	c226                	sw	s1,4(sp)
1c003396:	84aa                	mv	s1,a0
1c003398:	c606                	sw	ra,12(sp)
1c00339a:	c422                	sw	s0,8(sp)
1c00339c:	c04a                	sw	s2,0(sp)
1c00339e:	30047973          	csrrci	s2,mstatus,8
1c0033a2:	1c005437          	lui	s0,0x1c005
1c0033a6:	2c440413          	addi	s0,s0,708 # 1c0052c4 <__rt_io_event_current>
1c0033aa:	4008                	lw	a0,0(s0)
1c0033ac:	c509                	beqz	a0,1c0033b6 <__rt_io_uart_wait_req+0x24>
1c0033ae:	d3bfe0ef          	jal	ra,1c0020e8 <rt_event_wait>
1c0033b2:	00042023          	sw	zero,0(s0)
1c0033b6:	4785                	li	a5,1
1c0033b8:	08f48023          	sb	a5,128(s1)
1c0033bc:	0814c783          	lbu	a5,129(s1)
1c0033c0:	00201737          	lui	a4,0x201
1c0033c4:	e0470713          	addi	a4,a4,-508 # 200e04 <__L2+0x180e04>
1c0033c8:	04078793          	addi	a5,a5,64
1c0033cc:	07da                	slli	a5,a5,0x16
1c0033ce:	0007e723          	p.sw	zero,a4(a5)
1c0033d2:	30091073          	csrw	mstatus,s2
1c0033d6:	40b2                	lw	ra,12(sp)
1c0033d8:	4422                	lw	s0,8(sp)
1c0033da:	4492                	lw	s1,4(sp)
1c0033dc:	4902                	lw	s2,0(sp)
1c0033de:	0141                	addi	sp,sp,16
1c0033e0:	8082                	ret

1c0033e2 <__rt_do_putc_host>:
1c0033e2:	1c005737          	lui	a4,0x1c005
1c0033e6:	2cc70793          	addi	a5,a4,716 # 1c0052cc <__rt_putc_host_buffer_index>
1c0033ea:	4390                	lw	a2,0(a5)
1c0033ec:	2cc70713          	addi	a4,a4,716
1c0033f0:	00160693          	addi	a3,a2,1
1c0033f4:	c394                	sw	a3,0(a5)
1c0033f6:	1c0057b7          	lui	a5,0x1c005
1c0033fa:	0d078593          	addi	a1,a5,208 # 1c0050d0 <__rt_putc_host_buffer>
1c0033fe:	00a5c623          	p.sb	a0,a2(a1)
1c003402:	07f00593          	li	a1,127
1c003406:	0d078613          	addi	a2,a5,208
1c00340a:	00b68463          	beq	a3,a1,1c003412 <__rt_do_putc_host+0x30>
1c00340e:	00a53963          	p.bneimm	a0,10,1c003420 <__rt_do_putc_host+0x3e>
1c003412:	0d078513          	addi	a0,a5,208
1c003416:	000646a3          	p.sb	zero,a3(a2)
1c00341a:	00072023          	sw	zero,0(a4)
1c00341e:	a539                	j	1c003a2c <semihost_write0>
1c003420:	8082                	ret

1c003422 <__rt_io_start>:
1c003422:	1101                	addi	sp,sp,-32
1c003424:	0028                	addi	a0,sp,8
1c003426:	ce06                	sw	ra,28(sp)
1c003428:	cc22                	sw	s0,24(sp)
1c00342a:	356010ef          	jal	ra,1c004780 <rt_uart_conf_init>
1c00342e:	4585                	li	a1,1
1c003430:	4501                	li	a0,0
1c003432:	b55fe0ef          	jal	ra,1c001f86 <rt_event_alloc>
1c003436:	547d                	li	s0,-1
1c003438:	ed0d                	bnez	a0,1c003472 <__rt_io_start+0x50>
1c00343a:	1c0057b7          	lui	a5,0x1c005
1c00343e:	09c7a783          	lw	a5,156(a5) # 1c00509c <__rt_iodev_uart_baudrate>
1c003442:	842a                	mv	s0,a0
1c003444:	1c005537          	lui	a0,0x1c005
1c003448:	01c00593          	li	a1,28
1c00344c:	21450513          	addi	a0,a0,532 # 1c005214 <__rt_io_event>
1c003450:	c43e                	sw	a5,8(sp)
1c003452:	af5fe0ef          	jal	ra,1c001f46 <__rt_event_init>
1c003456:	1c0057b7          	lui	a5,0x1c005
1c00345a:	2a47a503          	lw	a0,676(a5) # 1c0052a4 <__rt_iodev_uart_channel>
1c00345e:	4681                	li	a3,0
1c003460:	4601                	li	a2,0
1c003462:	002c                	addi	a1,sp,8
1c003464:	0511                	addi	a0,a0,4
1c003466:	32a010ef          	jal	ra,1c004790 <__rt_uart_open>
1c00346a:	1c0057b7          	lui	a5,0x1c005
1c00346e:	2ca7a823          	sw	a0,720(a5) # 1c0052d0 <_rt_io_uart>
1c003472:	8522                	mv	a0,s0
1c003474:	40f2                	lw	ra,28(sp)
1c003476:	4462                	lw	s0,24(sp)
1c003478:	6105                	addi	sp,sp,32
1c00347a:	8082                	ret

1c00347c <rt_event_execute.isra.4.constprop.12>:
1c00347c:	1141                	addi	sp,sp,-16
1c00347e:	c606                	sw	ra,12(sp)
1c003480:	c422                	sw	s0,8(sp)
1c003482:	30047473          	csrrci	s0,mstatus,8
1c003486:	4585                	li	a1,1
1c003488:	01c00513          	li	a0,28
1c00348c:	bcffe0ef          	jal	ra,1c00205a <__rt_event_execute>
1c003490:	30041073          	csrw	mstatus,s0
1c003494:	40b2                	lw	ra,12(sp)
1c003496:	4422                	lw	s0,8(sp)
1c003498:	0141                	addi	sp,sp,16
1c00349a:	8082                	ret

1c00349c <__rt_io_lock>:
1c00349c:	1c0057b7          	lui	a5,0x1c005
1c0034a0:	fe07a783          	lw	a5,-32(a5) # 1c004fe0 <__hal_debug_struct+0x10>
1c0034a4:	cf81                	beqz	a5,1c0034bc <__rt_io_lock+0x20>
1c0034a6:	1c0057b7          	lui	a5,0x1c005
1c0034aa:	2d07a783          	lw	a5,720(a5) # 1c0052d0 <_rt_io_uart>
1c0034ae:	e799                	bnez	a5,1c0034bc <__rt_io_lock+0x20>
1c0034b0:	1c0057b7          	lui	a5,0x1c005
1c0034b4:	0987a783          	lw	a5,152(a5) # 1c005098 <__rt_iodev>
1c0034b8:	0427b963          	p.bneimm	a5,2,1c00350a <__rt_io_lock+0x6e>
1c0034bc:	7135                	addi	sp,sp,-160
1c0034be:	014027f3          	csrr	a5,uhartid
1c0034c2:	cf06                	sw	ra,156(sp)
1c0034c4:	ca5797b3          	p.extractu	a5,a5,5,5
1c0034c8:	02000713          	li	a4,32
1c0034cc:	1b001537          	lui	a0,0x1b001
1c0034d0:	00e79963          	bne	a5,a4,1c0034e2 <__rt_io_lock+0x46>
1c0034d4:	bbc50513          	addi	a0,a0,-1092 # 1b000bbc <__rt_io_fc_lock>
1c0034d8:	f24fe0ef          	jal	ra,1c001bfc <__rt_fc_lock>
1c0034dc:	40fa                	lw	ra,156(sp)
1c0034de:	610d                	addi	sp,sp,160
1c0034e0:	8082                	ret
1c0034e2:	004c                	addi	a1,sp,4
1c0034e4:	bbc50513          	addi	a0,a0,-1092
1c0034e8:	f7afe0ef          	jal	ra,1c001c62 <__rt_fc_cluster_lock>
1c0034ec:	4689                	li	a3,2
1c0034ee:	00204737          	lui	a4,0x204
1c0034f2:	08c14783          	lbu	a5,140(sp)
1c0034f6:	0ff7f793          	andi	a5,a5,255
1c0034fa:	f3ed                	bnez	a5,1c0034dc <__rt_io_lock+0x40>
1c0034fc:	00d72423          	sw	a3,8(a4) # 204008 <__L2+0x184008>
1c003500:	03c76783          	p.elw	a5,60(a4)
1c003504:	00d72223          	sw	a3,4(a4)
1c003508:	b7ed                	j	1c0034f2 <__rt_io_lock+0x56>
1c00350a:	8082                	ret

1c00350c <__rt_putc_host_cluster_req>:
1c00350c:	1141                	addi	sp,sp,-16
1c00350e:	c422                	sw	s0,8(sp)
1c003510:	c606                	sw	ra,12(sp)
1c003512:	842a                	mv	s0,a0
1c003514:	08954503          	lbu	a0,137(a0)
1c003518:	35e9                	jal	1c0033e2 <__rt_do_putc_host>
1c00351a:	08844783          	lbu	a5,136(s0)
1c00351e:	4705                	li	a4,1
1c003520:	08e42223          	sw	a4,132(s0)
1c003524:	00201737          	lui	a4,0x201
1c003528:	40b2                	lw	ra,12(sp)
1c00352a:	4422                	lw	s0,8(sp)
1c00352c:	04078793          	addi	a5,a5,64
1c003530:	07da                	slli	a5,a5,0x16
1c003532:	e0470713          	addi	a4,a4,-508 # 200e04 <__L2+0x180e04>
1c003536:	0007e723          	p.sw	zero,a4(a5)
1c00353a:	0141                	addi	sp,sp,16
1c00353c:	8082                	ret

1c00353e <__rt_io_unlock>:
1c00353e:	1c0057b7          	lui	a5,0x1c005
1c003542:	fe07a783          	lw	a5,-32(a5) # 1c004fe0 <__hal_debug_struct+0x10>
1c003546:	cf81                	beqz	a5,1c00355e <__rt_io_unlock+0x20>
1c003548:	1c0057b7          	lui	a5,0x1c005
1c00354c:	2d07a783          	lw	a5,720(a5) # 1c0052d0 <_rt_io_uart>
1c003550:	e799                	bnez	a5,1c00355e <__rt_io_unlock+0x20>
1c003552:	1c0057b7          	lui	a5,0x1c005
1c003556:	0987a783          	lw	a5,152(a5) # 1c005098 <__rt_iodev>
1c00355a:	0427b963          	p.bneimm	a5,2,1c0035ac <__rt_io_unlock+0x6e>
1c00355e:	7135                	addi	sp,sp,-160
1c003560:	014027f3          	csrr	a5,uhartid
1c003564:	cf06                	sw	ra,156(sp)
1c003566:	ca5797b3          	p.extractu	a5,a5,5,5
1c00356a:	02000713          	li	a4,32
1c00356e:	1b001537          	lui	a0,0x1b001
1c003572:	00e79963          	bne	a5,a4,1c003584 <__rt_io_unlock+0x46>
1c003576:	bbc50513          	addi	a0,a0,-1092 # 1b000bbc <__rt_io_fc_lock>
1c00357a:	eb4fe0ef          	jal	ra,1c001c2e <__rt_fc_unlock>
1c00357e:	40fa                	lw	ra,156(sp)
1c003580:	610d                	addi	sp,sp,160
1c003582:	8082                	ret
1c003584:	004c                	addi	a1,sp,4
1c003586:	bbc50513          	addi	a0,a0,-1092
1c00358a:	f10fe0ef          	jal	ra,1c001c9a <__rt_fc_cluster_unlock>
1c00358e:	4689                	li	a3,2
1c003590:	00204737          	lui	a4,0x204
1c003594:	08c14783          	lbu	a5,140(sp)
1c003598:	0ff7f793          	andi	a5,a5,255
1c00359c:	f3ed                	bnez	a5,1c00357e <__rt_io_unlock+0x40>
1c00359e:	00d72423          	sw	a3,8(a4) # 204008 <__L2+0x184008>
1c0035a2:	03c76783          	p.elw	a5,60(a4)
1c0035a6:	00d72223          	sw	a3,4(a4)
1c0035aa:	b7ed                	j	1c003594 <__rt_io_unlock+0x56>
1c0035ac:	8082                	ret

1c0035ae <__rt_io_uart_flush.constprop.11>:
1c0035ae:	7171                	addi	sp,sp,-176
1c0035b0:	d522                	sw	s0,168(sp)
1c0035b2:	d706                	sw	ra,172(sp)
1c0035b4:	d326                	sw	s1,164(sp)
1c0035b6:	d14a                	sw	s2,160(sp)
1c0035b8:	cf4e                	sw	s3,156(sp)
1c0035ba:	cd52                	sw	s4,152(sp)
1c0035bc:	1c005437          	lui	s0,0x1c005
1c0035c0:	2c842783          	lw	a5,712(s0) # 1c0052c8 <__rt_io_pending_flush>
1c0035c4:	2c840993          	addi	s3,s0,712
1c0035c8:	ebbd                	bnez	a5,1c00363e <__rt_io_uart_flush.constprop.11+0x90>
1c0035ca:	1c005637          	lui	a2,0x1c005
1c0035ce:	fd060793          	addi	a5,a2,-48 # 1c004fd0 <__hal_debug_struct>
1c0035d2:	4f80                	lw	s0,24(a5)
1c0035d4:	fd060a13          	addi	s4,a2,-48
1c0035d8:	c839                	beqz	s0,1c00362e <__rt_io_uart_flush.constprop.11+0x80>
1c0035da:	1c005737          	lui	a4,0x1c005
1c0035de:	014027f3          	csrr	a5,uhartid
1c0035e2:	2d072483          	lw	s1,720(a4) # 1c0052d0 <_rt_io_uart>
1c0035e6:	ca5797b3          	p.extractu	a5,a5,5,5
1c0035ea:	02000713          	li	a4,32
1c0035ee:	1c005937          	lui	s2,0x1c005
1c0035f2:	04e79c63          	bne	a5,a4,1c00364a <__rt_io_uart_flush.constprop.11+0x9c>
1c0035f6:	1c0035b7          	lui	a1,0x1c003
1c0035fa:	4785                	li	a5,1
1c0035fc:	fd060613          	addi	a2,a2,-48
1c003600:	38458593          	addi	a1,a1,900 # 1c003384 <__rt_io_end_of_flush>
1c003604:	4501                	li	a0,0
1c003606:	00f9a023          	sw	a5,0(s3)
1c00360a:	9f1fe0ef          	jal	ra,1c001ffa <rt_event_get>
1c00360e:	40cc                	lw	a1,4(s1)
1c003610:	87aa                	mv	a5,a0
1c003612:	4701                	li	a4,0
1c003614:	0586                	slli	a1,a1,0x1
1c003616:	86a2                	mv	a3,s0
1c003618:	fec90613          	addi	a2,s2,-20 # 1c004fec <__hal_debug_struct+0x1c>
1c00361c:	0585                	addi	a1,a1,1
1c00361e:	4501                	li	a0,0
1c003620:	eddfe0ef          	jal	ra,1c0024fc <rt_periph_copy>
1c003624:	3f29                	jal	1c00353e <__rt_io_unlock>
1c003626:	0009a783          	lw	a5,0(s3)
1c00362a:	ef91                	bnez	a5,1c003646 <__rt_io_uart_flush.constprop.11+0x98>
1c00362c:	3d85                	jal	1c00349c <__rt_io_lock>
1c00362e:	50ba                	lw	ra,172(sp)
1c003630:	542a                	lw	s0,168(sp)
1c003632:	549a                	lw	s1,164(sp)
1c003634:	590a                	lw	s2,160(sp)
1c003636:	49fa                	lw	s3,156(sp)
1c003638:	4a6a                	lw	s4,152(sp)
1c00363a:	614d                	addi	sp,sp,176
1c00363c:	8082                	ret
1c00363e:	3701                	jal	1c00353e <__rt_io_unlock>
1c003640:	3d35                	jal	1c00347c <rt_event_execute.isra.4.constprop.12>
1c003642:	3da9                	jal	1c00349c <__rt_io_lock>
1c003644:	bfb5                	j	1c0035c0 <__rt_io_uart_flush.constprop.11+0x12>
1c003646:	3d1d                	jal	1c00347c <rt_event_execute.isra.4.constprop.12>
1c003648:	bff9                	j	1c003626 <__rt_io_uart_flush.constprop.11+0x78>
1c00364a:	868a                	mv	a3,sp
1c00364c:	8622                	mv	a2,s0
1c00364e:	fec90593          	addi	a1,s2,-20
1c003652:	8526                	mv	a0,s1
1c003654:	214010ef          	jal	ra,1c004868 <rt_uart_cluster_write>
1c003658:	4689                	li	a3,2
1c00365a:	00204737          	lui	a4,0x204
1c00365e:	08c14783          	lbu	a5,140(sp)
1c003662:	0ff7f793          	andi	a5,a5,255
1c003666:	c781                	beqz	a5,1c00366e <__rt_io_uart_flush.constprop.11+0xc0>
1c003668:	000a2c23          	sw	zero,24(s4)
1c00366c:	b7c9                	j	1c00362e <__rt_io_uart_flush.constprop.11+0x80>
1c00366e:	00d72423          	sw	a3,8(a4) # 204008 <__L2+0x184008>
1c003672:	03c76783          	p.elw	a5,60(a4)
1c003676:	00d72223          	sw	a3,4(a4)
1c00367a:	b7d5                	j	1c00365e <__rt_io_uart_flush.constprop.11+0xb0>

1c00367c <__rt_io_uart_wait_pending>:
1c00367c:	7135                	addi	sp,sp,-160
1c00367e:	cd22                	sw	s0,152(sp)
1c003680:	cf06                	sw	ra,156(sp)
1c003682:	1c005437          	lui	s0,0x1c005
1c003686:	2c842783          	lw	a5,712(s0) # 1c0052c8 <__rt_io_pending_flush>
1c00368a:	eb85                	bnez	a5,1c0036ba <__rt_io_uart_wait_pending+0x3e>
1c00368c:	1c005437          	lui	s0,0x1c005
1c003690:	2c440413          	addi	s0,s0,708 # 1c0052c4 <__rt_io_event_current>
1c003694:	4008                	lw	a0,0(s0)
1c003696:	cd11                	beqz	a0,1c0036b2 <__rt_io_uart_wait_pending+0x36>
1c003698:	014027f3          	csrr	a5,uhartid
1c00369c:	8795                	srai	a5,a5,0x5
1c00369e:	f267b7b3          	p.bclr	a5,a5,25,6
1c0036a2:	02000713          	li	a4,32
1c0036a6:	00e79e63          	bne	a5,a4,1c0036c2 <__rt_io_uart_wait_pending+0x46>
1c0036aa:	a3ffe0ef          	jal	ra,1c0020e8 <rt_event_wait>
1c0036ae:	00042023          	sw	zero,0(s0)
1c0036b2:	40fa                	lw	ra,156(sp)
1c0036b4:	446a                	lw	s0,152(sp)
1c0036b6:	610d                	addi	sp,sp,160
1c0036b8:	8082                	ret
1c0036ba:	3551                	jal	1c00353e <__rt_io_unlock>
1c0036bc:	33c1                	jal	1c00347c <rt_event_execute.isra.4.constprop.12>
1c0036be:	3bf9                	jal	1c00349c <__rt_io_lock>
1c0036c0:	b7d9                	j	1c003686 <__rt_io_uart_wait_pending+0xa>
1c0036c2:	08f106a3          	sb	a5,141(sp)
1c0036c6:	1c0037b7          	lui	a5,0x1c003
1c0036ca:	39278793          	addi	a5,a5,914 # 1c003392 <__rt_io_uart_wait_req>
1c0036ce:	4705                	li	a4,1
1c0036d0:	c83e                	sw	a5,16(sp)
1c0036d2:	0068                	addi	a0,sp,12
1c0036d4:	1c0057b7          	lui	a5,0x1c005
1c0036d8:	22e7ac23          	sw	a4,568(a5) # 1c005238 <__rt_io_event+0x24>
1c0036dc:	08010623          	sb	zero,140(sp)
1c0036e0:	d802                	sw	zero,48(sp)
1c0036e2:	da02                	sw	zero,52(sp)
1c0036e4:	ca2a                	sw	a0,20(sp)
1c0036e6:	fa0ff0ef          	jal	ra,1c002e86 <__rt_cluster_push_fc_event>
1c0036ea:	4689                	li	a3,2
1c0036ec:	00204737          	lui	a4,0x204
1c0036f0:	08c14783          	lbu	a5,140(sp)
1c0036f4:	0ff7f793          	andi	a5,a5,255
1c0036f8:	ffcd                	bnez	a5,1c0036b2 <__rt_io_uart_wait_pending+0x36>
1c0036fa:	00d72423          	sw	a3,8(a4) # 204008 <__L2+0x184008>
1c0036fe:	03c76783          	p.elw	a5,60(a4)
1c003702:	00d72223          	sw	a3,4(a4)
1c003706:	b7ed                	j	1c0036f0 <__rt_io_uart_wait_pending+0x74>

1c003708 <__rt_io_stop>:
1c003708:	1141                	addi	sp,sp,-16
1c00370a:	c422                	sw	s0,8(sp)
1c00370c:	1c005437          	lui	s0,0x1c005
1c003710:	c606                	sw	ra,12(sp)
1c003712:	2d040413          	addi	s0,s0,720 # 1c0052d0 <_rt_io_uart>
1c003716:	379d                	jal	1c00367c <__rt_io_uart_wait_pending>
1c003718:	4008                	lw	a0,0(s0)
1c00371a:	4581                	li	a1,0
1c00371c:	0fe010ef          	jal	ra,1c00481a <rt_uart_close>
1c003720:	40b2                	lw	ra,12(sp)
1c003722:	00042023          	sw	zero,0(s0)
1c003726:	4422                	lw	s0,8(sp)
1c003728:	4501                	li	a0,0
1c00372a:	0141                	addi	sp,sp,16
1c00372c:	8082                	ret

1c00372e <memset>:
1c00372e:	962a                	add	a2,a2,a0
1c003730:	87aa                	mv	a5,a0
1c003732:	00c79363          	bne	a5,a2,1c003738 <memset+0xa>
1c003736:	8082                	ret
1c003738:	00b780ab          	p.sb	a1,1(a5!)
1c00373c:	bfdd                	j	1c003732 <memset+0x4>

1c00373e <strchr>:
1c00373e:	0ff5f593          	andi	a1,a1,255
1c003742:	00054703          	lbu	a4,0(a0)
1c003746:	87aa                	mv	a5,a0
1c003748:	0505                	addi	a0,a0,1
1c00374a:	00b70563          	beq	a4,a1,1c003754 <strchr+0x16>
1c00374e:	fb75                	bnez	a4,1c003742 <strchr+0x4>
1c003750:	c191                	beqz	a1,1c003754 <strchr+0x16>
1c003752:	4781                	li	a5,0
1c003754:	853e                	mv	a0,a5
1c003756:	8082                	ret

1c003758 <__rt_putc_debug_bridge>:
1c003758:	1141                	addi	sp,sp,-16
1c00375a:	c422                	sw	s0,8(sp)
1c00375c:	1c005437          	lui	s0,0x1c005
1c003760:	c226                	sw	s1,4(sp)
1c003762:	c606                	sw	ra,12(sp)
1c003764:	84aa                	mv	s1,a0
1c003766:	fd040413          	addi	s0,s0,-48 # 1c004fd0 <__hal_debug_struct>
1c00376a:	485c                	lw	a5,20(s0)
1c00376c:	c791                	beqz	a5,1c003778 <__rt_putc_debug_bridge+0x20>
1c00376e:	06400513          	li	a0,100
1c003772:	beffe0ef          	jal	ra,1c002360 <rt_time_wait_us>
1c003776:	bfd5                	j	1c00376a <__rt_putc_debug_bridge+0x12>
1c003778:	4c1c                	lw	a5,24(s0)
1c00377a:	00178713          	addi	a4,a5,1
1c00377e:	97a2                	add	a5,a5,s0
1c003780:	00978e23          	sb	s1,28(a5)
1c003784:	cc18                	sw	a4,24(s0)
1c003786:	4c14                	lw	a3,24(s0)
1c003788:	08000793          	li	a5,128
1c00378c:	00f68463          	beq	a3,a5,1c003794 <__rt_putc_debug_bridge+0x3c>
1c003790:	00a4b663          	p.bneimm	s1,10,1c00379c <__rt_putc_debug_bridge+0x44>
1c003794:	c701                	beqz	a4,1c00379c <__rt_putc_debug_bridge+0x44>
1c003796:	c858                	sw	a4,20(s0)
1c003798:	00042c23          	sw	zero,24(s0)
1c00379c:	4c1c                	lw	a5,24(s0)
1c00379e:	e799                	bnez	a5,1c0037ac <__rt_putc_debug_bridge+0x54>
1c0037a0:	4422                	lw	s0,8(sp)
1c0037a2:	40b2                	lw	ra,12(sp)
1c0037a4:	4492                	lw	s1,4(sp)
1c0037a6:	0141                	addi	sp,sp,16
1c0037a8:	ec2fe06f          	j	1c001e6a <__rt_bridge_printf_flush>
1c0037ac:	40b2                	lw	ra,12(sp)
1c0037ae:	4422                	lw	s0,8(sp)
1c0037b0:	4492                	lw	s1,4(sp)
1c0037b2:	0141                	addi	sp,sp,16
1c0037b4:	8082                	ret

1c0037b6 <__rt_putc_uart>:
1c0037b6:	1101                	addi	sp,sp,-32
1c0037b8:	c62a                	sw	a0,12(sp)
1c0037ba:	ce06                	sw	ra,28(sp)
1c0037bc:	35c1                	jal	1c00367c <__rt_io_uart_wait_pending>
1c0037be:	1c0057b7          	lui	a5,0x1c005
1c0037c2:	fd078793          	addi	a5,a5,-48 # 1c004fd0 <__hal_debug_struct>
1c0037c6:	4f94                	lw	a3,24(a5)
1c0037c8:	4532                	lw	a0,12(sp)
1c0037ca:	00168713          	addi	a4,a3,1
1c0037ce:	cf98                	sw	a4,24(a5)
1c0037d0:	97b6                	add	a5,a5,a3
1c0037d2:	00a78e23          	sb	a0,28(a5)
1c0037d6:	08000793          	li	a5,128
1c0037da:	00f70463          	beq	a4,a5,1c0037e2 <__rt_putc_uart+0x2c>
1c0037de:	00a53563          	p.bneimm	a0,10,1c0037e8 <__rt_putc_uart+0x32>
1c0037e2:	40f2                	lw	ra,28(sp)
1c0037e4:	6105                	addi	sp,sp,32
1c0037e6:	b3e1                	j	1c0035ae <__rt_io_uart_flush.constprop.11>
1c0037e8:	40f2                	lw	ra,28(sp)
1c0037ea:	6105                	addi	sp,sp,32
1c0037ec:	8082                	ret

1c0037ee <tfp_putc.isra.9>:
1c0037ee:	1c0057b7          	lui	a5,0x1c005
1c0037f2:	0987a783          	lw	a5,152(a5) # 1c005098 <__rt_iodev>
1c0037f6:	7135                	addi	sp,sp,-160
1c0037f8:	cf06                	sw	ra,156(sp)
1c0037fa:	0427bf63          	p.bneimm	a5,2,1c003858 <tfp_putc.isra.9+0x6a>
1c0037fe:	014027f3          	csrr	a5,uhartid
1c003802:	8795                	srai	a5,a5,0x5
1c003804:	f267b7b3          	p.bclr	a5,a5,25,6
1c003808:	02000713          	li	a4,32
1c00380c:	00e79763          	bne	a5,a4,1c00381a <tfp_putc.isra.9+0x2c>
1c003810:	bd3ff0ef          	jal	ra,1c0033e2 <__rt_do_putc_host>
1c003814:	40fa                	lw	ra,156(sp)
1c003816:	610d                	addi	sp,sp,160
1c003818:	8082                	ret
1c00381a:	08f10623          	sb	a5,140(sp)
1c00381e:	1c0037b7          	lui	a5,0x1c003
1c003822:	4705                	li	a4,1
1c003824:	50c78793          	addi	a5,a5,1292 # 1c00350c <__rt_putc_host_cluster_req>
1c003828:	08a106a3          	sb	a0,141(sp)
1c00382c:	0048                	addi	a0,sp,4
1c00382e:	d63a                	sw	a4,44(sp)
1c003830:	c43e                	sw	a5,8(sp)
1c003832:	c502                	sw	zero,136(sp)
1c003834:	ce02                	sw	zero,28(sp)
1c003836:	c62a                	sw	a0,12(sp)
1c003838:	00010c23          	sb	zero,24(sp)
1c00383c:	e4aff0ef          	jal	ra,1c002e86 <__rt_cluster_push_fc_event>
1c003840:	4709                	li	a4,2
1c003842:	002047b7          	lui	a5,0x204
1c003846:	46aa                	lw	a3,136(sp)
1c003848:	f6f1                	bnez	a3,1c003814 <tfp_putc.isra.9+0x26>
1c00384a:	00e7a423          	sw	a4,8(a5) # 204008 <__L2+0x184008>
1c00384e:	03c7e683          	p.elw	a3,60(a5)
1c003852:	00e7a223          	sw	a4,4(a5)
1c003856:	bfc5                	j	1c003846 <tfp_putc.isra.9+0x58>
1c003858:	1c0057b7          	lui	a5,0x1c005
1c00385c:	2d07a783          	lw	a5,720(a5) # 1c0052d0 <_rt_io_uart>
1c003860:	c399                	beqz	a5,1c003866 <tfp_putc.isra.9+0x78>
1c003862:	3f91                	jal	1c0037b6 <__rt_putc_uart>
1c003864:	bf45                	j	1c003814 <tfp_putc.isra.9+0x26>
1c003866:	1c0057b7          	lui	a5,0x1c005
1c00386a:	fe07a783          	lw	a5,-32(a5) # 1c004fe0 <__hal_debug_struct+0x10>
1c00386e:	c395                	beqz	a5,1c003892 <tfp_putc.isra.9+0xa4>
1c003870:	014027f3          	csrr	a5,uhartid
1c003874:	00379713          	slli	a4,a5,0x3
1c003878:	1a1106b7          	lui	a3,0x1a110
1c00387c:	ee873733          	p.bclr	a4,a4,23,8
1c003880:	9736                	add	a4,a4,a3
1c003882:	6689                	lui	a3,0x2
1c003884:	078a                	slli	a5,a5,0x2
1c003886:	f8068693          	addi	a3,a3,-128 # 1f80 <__rt_stack_size+0x1780>
1c00388a:	8ff5                	and	a5,a5,a3
1c00388c:	00a767a3          	p.sw	a0,a5(a4)
1c003890:	b751                	j	1c003814 <tfp_putc.isra.9+0x26>
1c003892:	35d9                	jal	1c003758 <__rt_putc_debug_bridge>
1c003894:	b741                	j	1c003814 <tfp_putc.isra.9+0x26>

1c003896 <puts>:
1c003896:	1141                	addi	sp,sp,-16
1c003898:	c422                	sw	s0,8(sp)
1c00389a:	c606                	sw	ra,12(sp)
1c00389c:	842a                	mv	s0,a0
1c00389e:	bffff0ef          	jal	ra,1c00349c <__rt_io_lock>
1c0038a2:	0014450b          	p.lbu	a0,1(s0!)
1c0038a6:	c119                	beqz	a0,1c0038ac <puts+0x16>
1c0038a8:	3799                	jal	1c0037ee <tfp_putc.isra.9>
1c0038aa:	bfe5                	j	1c0038a2 <puts+0xc>
1c0038ac:	4529                	li	a0,10
1c0038ae:	3781                	jal	1c0037ee <tfp_putc.isra.9>
1c0038b0:	c8fff0ef          	jal	ra,1c00353e <__rt_io_unlock>
1c0038b4:	40b2                	lw	ra,12(sp)
1c0038b6:	4422                	lw	s0,8(sp)
1c0038b8:	4501                	li	a0,0
1c0038ba:	0141                	addi	sp,sp,16
1c0038bc:	8082                	ret

1c0038be <fputc_locked>:
1c0038be:	1141                	addi	sp,sp,-16
1c0038c0:	c422                	sw	s0,8(sp)
1c0038c2:	842a                	mv	s0,a0
1c0038c4:	0ff57513          	andi	a0,a0,255
1c0038c8:	c606                	sw	ra,12(sp)
1c0038ca:	3715                	jal	1c0037ee <tfp_putc.isra.9>
1c0038cc:	8522                	mv	a0,s0
1c0038ce:	40b2                	lw	ra,12(sp)
1c0038d0:	4422                	lw	s0,8(sp)
1c0038d2:	0141                	addi	sp,sp,16
1c0038d4:	8082                	ret

1c0038d6 <fputc>:
1c0038d6:	1141                	addi	sp,sp,-16
1c0038d8:	c606                	sw	ra,12(sp)
1c0038da:	c422                	sw	s0,8(sp)
1c0038dc:	842a                	mv	s0,a0
1c0038de:	bbfff0ef          	jal	ra,1c00349c <__rt_io_lock>
1c0038e2:	0ff47513          	andi	a0,s0,255
1c0038e6:	3721                	jal	1c0037ee <tfp_putc.isra.9>
1c0038e8:	1c0057b7          	lui	a5,0x1c005
1c0038ec:	fe07a783          	lw	a5,-32(a5) # 1c004fe0 <__hal_debug_struct+0x10>
1c0038f0:	e399                	bnez	a5,1c0038f6 <fputc+0x20>
1c0038f2:	d78fe0ef          	jal	ra,1c001e6a <__rt_bridge_printf_flush>
1c0038f6:	c49ff0ef          	jal	ra,1c00353e <__rt_io_unlock>
1c0038fa:	8522                	mv	a0,s0
1c0038fc:	40b2                	lw	ra,12(sp)
1c0038fe:	4422                	lw	s0,8(sp)
1c003900:	0141                	addi	sp,sp,16
1c003902:	8082                	ret

1c003904 <putchar>:
1c003904:	4589                	li	a1,2
1c003906:	bfc1                	j	1c0038d6 <fputc>

1c003908 <_prf_locked>:
1c003908:	1101                	addi	sp,sp,-32
1c00390a:	ce06                	sw	ra,28(sp)
1c00390c:	c02a                	sw	a0,0(sp)
1c00390e:	c62e                	sw	a1,12(sp)
1c003910:	c432                	sw	a2,8(sp)
1c003912:	c236                	sw	a3,4(sp)
1c003914:	b89ff0ef          	jal	ra,1c00349c <__rt_io_lock>
1c003918:	4692                	lw	a3,4(sp)
1c00391a:	4622                	lw	a2,8(sp)
1c00391c:	45b2                	lw	a1,12(sp)
1c00391e:	4502                	lw	a0,0(sp)
1c003920:	24b5                	jal	1c003b8c <_prf>
1c003922:	c02a                	sw	a0,0(sp)
1c003924:	c1bff0ef          	jal	ra,1c00353e <__rt_io_unlock>
1c003928:	40f2                	lw	ra,28(sp)
1c00392a:	4502                	lw	a0,0(sp)
1c00392c:	6105                	addi	sp,sp,32
1c00392e:	8082                	ret

1c003930 <exit>:
1c003930:	1101                	addi	sp,sp,-32
1c003932:	cc22                	sw	s0,24(sp)
1c003934:	c84a                	sw	s2,16(sp)
1c003936:	c62a                	sw	a0,12(sp)
1c003938:	ce06                	sw	ra,28(sp)
1c00393a:	ca26                	sw	s1,20(sp)
1c00393c:	898fe0ef          	jal	ra,1c0019d4 <__rt_deinit>
1c003940:	4532                	lw	a0,12(sp)
1c003942:	1a104437          	lui	s0,0x1a104
1c003946:	0a040793          	addi	a5,s0,160 # 1a1040a0 <__l1_end+0xa104080>
1c00394a:	c1f54933          	p.bset	s2,a0,0,31
1c00394e:	0127a023          	sw	s2,0(a5)
1c003952:	1c0057b7          	lui	a5,0x1c005
1c003956:	0987a783          	lw	a5,152(a5) # 1c005098 <__rt_iodev>
1c00395a:	0027be63          	p.bneimm	a5,2,1c003976 <exit+0x46>
1c00395e:	c519                	beqz	a0,1c00396c <exit+0x3c>
1c003960:	00020537          	lui	a0,0x20
1c003964:	02350513          	addi	a0,a0,35 # 20023 <__L1Cl+0x10023>
1c003968:	20e9                	jal	1c003a32 <semihost_exit>
1c00396a:	a001                	j	1c00396a <exit+0x3a>
1c00396c:	00020537          	lui	a0,0x20
1c003970:	02650513          	addi	a0,a0,38 # 20026 <__L1Cl+0x10026>
1c003974:	bfd5                	j	1c003968 <exit+0x38>
1c003976:	1c0054b7          	lui	s1,0x1c005
1c00397a:	fd048493          	addi	s1,s1,-48 # 1c004fd0 <__hal_debug_struct>
1c00397e:	cecfe0ef          	jal	ra,1c001e6a <__rt_bridge_printf_flush>
1c003982:	0124a623          	sw	s2,12(s1)
1c003986:	ca6fe0ef          	jal	ra,1c001e2c <__rt_bridge_send_notif>
1c00398a:	449c                	lw	a5,8(s1)
1c00398c:	dff9                	beqz	a5,1c00396a <exit+0x3a>
1c00398e:	07440413          	addi	s0,s0,116
1c003992:	401c                	lw	a5,0(s0)
1c003994:	83a5                	srli	a5,a5,0x9
1c003996:	f837b7b3          	p.bclr	a5,a5,28,3
1c00399a:	fe77bce3          	p.bneimm	a5,7,1c003992 <exit+0x62>
1c00399e:	caefe0ef          	jal	ra,1c001e4c <__rt_bridge_clear_notif>
1c0039a2:	b7e1                	j	1c00396a <exit+0x3a>

1c0039a4 <abort>:
1c0039a4:	1141                	addi	sp,sp,-16
1c0039a6:	557d                	li	a0,-1
1c0039a8:	c606                	sw	ra,12(sp)
1c0039aa:	3759                	jal	1c003930 <exit>

1c0039ac <__rt_io_init>:
#endif
}

RT_FC_BOOT_CODE void __attribute__((constructor)) __rt_io_init()
{
  __rt_putc_host_buffer_index = 0;
1c0039ac:	1c0057b7          	lui	a5,0x1c005
1c0039b0:	2c07a623          	sw	zero,716(a5) # 1c0052cc <__rt_putc_host_buffer_index>
void __rt_fc_cluster_unlock(rt_fc_lock_t *lock, rt_fc_lock_req_t *req);

static inline void __rt_fc_lock_init(rt_fc_lock_t *lock)
{
#if defined(ARCHI_HAS_FC)
  lock->waiting = NULL;
1c0039b4:	1b0017b7          	lui	a5,0x1b001
1c0039b8:	bbc78793          	addi	a5,a5,-1092 # 1b000bbc <__rt_io_fc_lock>
1c0039bc:	0007a223          	sw	zero,4(a5)
  lock->locked = 0;
1c0039c0:	0007a023          	sw	zero,0(a5)
  lock->fc_wait = NULL;
1c0039c4:	0007a623          	sw	zero,12(a5)
  __rt_fc_lock_init(&__rt_io_fc_lock);

#if defined(__RT_USE_UART)
  _rt_io_uart = NULL;
1c0039c8:	1c0057b7          	lui	a5,0x1c005
1c0039cc:	2c07a823          	sw	zero,720(a5) # 1c0052d0 <_rt_io_uart>
  __rt_io_event_current = NULL;
1c0039d0:	1c0057b7          	lui	a5,0x1c005
1c0039d4:	2c07a223          	sw	zero,708(a5) # 1c0052c4 <__rt_io_event_current>
  return __rt_iodev;
1c0039d8:	1c0057b7          	lui	a5,0x1c005

  if (rt_iodev() == RT_IODEV_UART)
1c0039dc:	0987a783          	lw	a5,152(a5) # 1c005098 <__rt_iodev>
1c0039e0:	0217be63          	p.bneimm	a5,1,1c003a1c <__rt_io_init+0x70>
  {
    __rt_cbsys_add(RT_CBSYS_START, __rt_io_start, NULL);
1c0039e4:	1c0035b7          	lui	a1,0x1c003
{
1c0039e8:	1141                	addi	sp,sp,-16
    __rt_cbsys_add(RT_CBSYS_START, __rt_io_start, NULL);
1c0039ea:	4601                	li	a2,0
1c0039ec:	42258593          	addi	a1,a1,1058 # 1c003422 <__rt_io_start>
1c0039f0:	4501                	li	a0,0
{
1c0039f2:	c606                	sw	ra,12(sp)
    __rt_cbsys_add(RT_CBSYS_START, __rt_io_start, NULL);
1c0039f4:	978fe0ef          	jal	ra,1c001b6c <__rt_cbsys_add>
    __rt_cbsys_add(RT_CBSYS_STOP, __rt_io_stop, NULL);
1c0039f8:	1c0035b7          	lui	a1,0x1c003
1c0039fc:	70858593          	addi	a1,a1,1800 # 1c003708 <__rt_io_stop>
1c003a00:	4601                	li	a2,0
1c003a02:	4505                	li	a0,1
1c003a04:	968fe0ef          	jal	ra,1c001b6c <__rt_cbsys_add>
    __rt_io_pending_flush = 0;
    rt_event_alloc(NULL, 1);
  }
#endif

}
1c003a08:	40b2                	lw	ra,12(sp)
    __rt_io_pending_flush = 0;
1c003a0a:	1c0057b7          	lui	a5,0x1c005
1c003a0e:	2c07a423          	sw	zero,712(a5) # 1c0052c8 <__rt_io_pending_flush>
    rt_event_alloc(NULL, 1);
1c003a12:	4585                	li	a1,1
1c003a14:	4501                	li	a0,0
}
1c003a16:	0141                	addi	sp,sp,16
    rt_event_alloc(NULL, 1);
1c003a18:	d6efe06f          	j	1c001f86 <rt_event_alloc>
1c003a1c:	8082                	ret

1c003a1e <__internal_semihost>:
    return __internal_semihost(SEMIHOSTING_SYS_SEEK, (long) args);
}

int semihost_flen(int fd)
{
    return __internal_semihost(SEMIHOSTING_SYS_FLEN, (long) fd);
1c003a1e:	01f01013          	slli	zero,zero,0x1f
1c003a22:	00100073          	ebreak
1c003a26:	40705013          	srai	zero,zero,0x7
1c003a2a:	8082                	ret

1c003a2c <semihost_write0>:
1c003a2c:	85aa                	mv	a1,a0
1c003a2e:	4511                	li	a0,4
1c003a30:	b7fd                	j	1c003a1e <__internal_semihost>

1c003a32 <semihost_exit>:
}

int semihost_exit(int code)
{
    return __internal_semihost(SEMIHOSTING_SYS_EXIT, (long) code);
1c003a32:	85aa                	mv	a1,a0
1c003a34:	4561                	li	a0,24
1c003a36:	b7e5                	j	1c003a1e <__internal_semihost>

1c003a38 <printf>:

	return r;
}

int printf(const char *format, ...)
{
1c003a38:	7139                	addi	sp,sp,-64
1c003a3a:	d432                	sw	a2,40(sp)
	va_list vargs;
	int     r;

	va_start(vargs, format);
	r = _prf_locked(fputc_locked, DESC(stdout), format, vargs);
1c003a3c:	862a                	mv	a2,a0
1c003a3e:	1c004537          	lui	a0,0x1c004
{
1c003a42:	d22e                	sw	a1,36(sp)
1c003a44:	d636                	sw	a3,44(sp)
	r = _prf_locked(fputc_locked, DESC(stdout), format, vargs);
1c003a46:	4589                	li	a1,2
	va_start(vargs, format);
1c003a48:	1054                	addi	a3,sp,36
	r = _prf_locked(fputc_locked, DESC(stdout), format, vargs);
1c003a4a:	8be50513          	addi	a0,a0,-1858 # 1c0038be <fputc_locked>
{
1c003a4e:	ce06                	sw	ra,28(sp)
1c003a50:	d83a                	sw	a4,48(sp)
1c003a52:	da3e                	sw	a5,52(sp)
1c003a54:	dc42                	sw	a6,56(sp)
1c003a56:	de46                	sw	a7,60(sp)
	va_start(vargs, format);
1c003a58:	c636                	sw	a3,12(sp)
	r = _prf_locked(fputc_locked, DESC(stdout), format, vargs);
1c003a5a:	357d                	jal	1c003908 <_prf_locked>
	va_end(vargs);

	return r;
}
1c003a5c:	40f2                	lw	ra,28(sp)
1c003a5e:	6121                	addi	sp,sp,64
1c003a60:	8082                	ret

1c003a62 <_to_x>:
 * Writes the specified number into the buffer in the given base,
 * using the digit characters 0-9a-z (i.e. base>36 will start writing
 * odd bytes).
 */
static int _to_x(char *buf, unsigned VALTYPE n, unsigned int base)
{
1c003a62:	7179                	addi	sp,sp,-48
1c003a64:	d422                	sw	s0,40(sp)
1c003a66:	d226                	sw	s1,36(sp)
1c003a68:	ce4e                	sw	s3,28(sp)
1c003a6a:	cc52                	sw	s4,24(sp)
1c003a6c:	ca56                	sw	s5,20(sp)
1c003a6e:	c85a                	sw	s6,16(sp)
1c003a70:	d606                	sw	ra,44(sp)
1c003a72:	d04a                	sw	s2,32(sp)
1c003a74:	c65e                	sw	s7,12(sp)
1c003a76:	84aa                	mv	s1,a0
1c003a78:	89ae                	mv	s3,a1
1c003a7a:	8a32                	mv	s4,a2
1c003a7c:	8ab6                	mv	s5,a3
1c003a7e:	842a                	mv	s0,a0

	do {
		unsigned int d = n % base;

		n /= base;
		*buf++ = '0' + d + (d > 9 ? ('a' - '0' - 10) : 0);
1c003a80:	4b25                	li	s6,9
		unsigned int d = n % base;
1c003a82:	8656                	mv	a2,s5
1c003a84:	4681                	li	a3,0
1c003a86:	854e                	mv	a0,s3
1c003a88:	85d2                	mv	a1,s4
1c003a8a:	db9fc0ef          	jal	ra,1c000842 <__umoddi3>
		n /= base;
1c003a8e:	85d2                	mv	a1,s4
		unsigned int d = n % base;
1c003a90:	892a                	mv	s2,a0
		n /= base;
1c003a92:	8656                	mv	a2,s5
1c003a94:	854e                	mv	a0,s3
1c003a96:	4681                	li	a3,0
1c003a98:	a6ffc0ef          	jal	ra,1c000506 <__udivdi3>
1c003a9c:	89aa                	mv	s3,a0
1c003a9e:	8a2e                	mv	s4,a1
		*buf++ = '0' + d + (d > 9 ? ('a' - '0' - 10) : 0);
1c003aa0:	02700713          	li	a4,39
1c003aa4:	012b6363          	bltu	s6,s2,1c003aaa <_to_x+0x48>
1c003aa8:	4701                	li	a4,0
1c003aaa:	03090913          	addi	s2,s2,48
1c003aae:	974a                	add	a4,a4,s2
1c003ab0:	00e40023          	sb	a4,0(s0)
	} while (n);
1c003ab4:	8dc9                	or	a1,a1,a0
		*buf++ = '0' + d + (d > 9 ? ('a' - '0' - 10) : 0);
1c003ab6:	00140793          	addi	a5,s0,1
	} while (n);
1c003aba:	e195                	bnez	a1,1c003ade <_to_x+0x7c>

	*buf = 0;
1c003abc:	00078023          	sb	zero,0(a5)
	len = buf - start;
1c003ac0:	40978533          	sub	a0,a5,s1

	for (buf--; buf > start; buf--, start++) {
1c003ac4:	0084ef63          	bltu	s1,s0,1c003ae2 <_to_x+0x80>
		*buf = *start;
		*start = tmp;
	}

	return len;
}
1c003ac8:	50b2                	lw	ra,44(sp)
1c003aca:	5422                	lw	s0,40(sp)
1c003acc:	5492                	lw	s1,36(sp)
1c003ace:	5902                	lw	s2,32(sp)
1c003ad0:	49f2                	lw	s3,28(sp)
1c003ad2:	4a62                	lw	s4,24(sp)
1c003ad4:	4ad2                	lw	s5,20(sp)
1c003ad6:	4b42                	lw	s6,16(sp)
1c003ad8:	4bb2                	lw	s7,12(sp)
1c003ada:	6145                	addi	sp,sp,48
1c003adc:	8082                	ret
1c003ade:	843e                	mv	s0,a5
1c003ae0:	b74d                	j	1c003a82 <_to_x+0x20>
		*buf = *start;
1c003ae2:	0004c703          	lbu	a4,0(s1)
		char tmp = *buf;
1c003ae6:	00044783          	lbu	a5,0(s0)
		*buf = *start;
1c003aea:	fee40fab          	p.sb	a4,-1(s0!)
		*start = tmp;
1c003aee:	00f480ab          	p.sb	a5,1(s1!)
1c003af2:	bfc9                	j	1c003ac4 <_to_x+0x62>

1c003af4 <_rlrshift>:
	return (buf + _to_udec(buf, value)) - start;
}

static	void _rlrshift(uint64_t *v)
{
	*v = (*v & 1) + (*v >> 1);
1c003af4:	411c                	lw	a5,0(a0)
1c003af6:	4154                	lw	a3,4(a0)
1c003af8:	fc17b733          	p.bclr	a4,a5,30,1
1c003afc:	01f69613          	slli	a2,a3,0x1f
1c003b00:	8385                	srli	a5,a5,0x1
1c003b02:	8fd1                	or	a5,a5,a2
1c003b04:	97ba                	add	a5,a5,a4
1c003b06:	8285                	srli	a3,a3,0x1
1c003b08:	00e7b733          	sltu	a4,a5,a4
1c003b0c:	9736                	add	a4,a4,a3
1c003b0e:	c11c                	sw	a5,0(a0)
1c003b10:	c158                	sw	a4,4(a0)
}
1c003b12:	8082                	ret

1c003b14 <_ldiv5>:
 * taken from the full 64 bit space.
 */
static void _ldiv5(uint64_t *v)
{
	uint32_t hi;
	uint64_t rem = *v, quot = 0U, q;
1c003b14:	4118                	lw	a4,0(a0)
1c003b16:	4154                	lw	a3,4(a0)
	 */
	rem += 2U;

	for (i = 0; i < 3; i++) {
		hi = rem >> shifts[i];
		q = (uint64_t)(hi / 5U) << shifts[i];
1c003b18:	4615                	li	a2,5
	rem += 2U;
1c003b1a:	00270793          	addi	a5,a4,2
1c003b1e:	00e7b733          	sltu	a4,a5,a4
1c003b22:	9736                	add	a4,a4,a3
		q = (uint64_t)(hi / 5U) << shifts[i];
1c003b24:	02c755b3          	divu	a1,a4,a2
		rem -= q * 5U;
1c003b28:	42b61733          	p.msu	a4,a2,a1
		hi = rem >> shifts[i];
1c003b2c:	01d71693          	slli	a3,a4,0x1d
1c003b30:	0037d713          	srli	a4,a5,0x3
1c003b34:	8f55                	or	a4,a4,a3
		q = (uint64_t)(hi / 5U) << shifts[i];
1c003b36:	02c75733          	divu	a4,a4,a2
1c003b3a:	01d75693          	srli	a3,a4,0x1d
1c003b3e:	070e                	slli	a4,a4,0x3
		rem -= q * 5U;
1c003b40:	42e617b3          	p.msu	a5,a2,a4
		quot += q;
1c003b44:	95b6                	add	a1,a1,a3
		q = (uint64_t)(hi / 5U) << shifts[i];
1c003b46:	02c7d7b3          	divu	a5,a5,a2
		quot += q;
1c003b4a:	973e                	add	a4,a4,a5
1c003b4c:	00f737b3          	sltu	a5,a4,a5
1c003b50:	97ae                	add	a5,a5,a1
	}

	*v = quot;
1c003b52:	c118                	sw	a4,0(a0)
1c003b54:	c15c                	sw	a5,4(a0)
}
1c003b56:	8082                	ret

1c003b58 <_get_digit>:

static	char _get_digit(uint64_t *fr, int *digit_count)
{
	char rval;

	if (*digit_count > 0) {
1c003b58:	419c                	lw	a5,0(a1)
		*digit_count -= 1;
		*fr = *fr * 10U;
		rval = ((*fr >> 60) & 0xF) + '0';
		*fr &= 0x0FFFFFFFFFFFFFFFull;
	} else {
		rval = '0';
1c003b5a:	03000713          	li	a4,48
	if (*digit_count > 0) {
1c003b5e:	02f05563          	blez	a5,1c003b88 <_get_digit+0x30>
		*digit_count -= 1;
1c003b62:	17fd                	addi	a5,a5,-1
1c003b64:	c19c                	sw	a5,0(a1)
		*fr = *fr * 10U;
1c003b66:	411c                	lw	a5,0(a0)
1c003b68:	4729                	li	a4,10
1c003b6a:	4150                	lw	a2,4(a0)
1c003b6c:	02f706b3          	mul	a3,a4,a5
1c003b70:	02f737b3          	mulhu	a5,a4,a5
		*fr &= 0x0FFFFFFFFFFFFFFFull;
1c003b74:	c114                	sw	a3,0(a0)
		*fr = *fr * 10U;
1c003b76:	42c707b3          	p.mac	a5,a4,a2
		rval = ((*fr >> 60) & 0xF) + '0';
1c003b7a:	01c7d713          	srli	a4,a5,0x1c
		*fr &= 0x0FFFFFFFFFFFFFFFull;
1c003b7e:	c7c7b7b3          	p.bclr	a5,a5,3,28
		rval = ((*fr >> 60) & 0xF) + '0';
1c003b82:	03070713          	addi	a4,a4,48
		*fr &= 0x0FFFFFFFFFFFFFFFull;
1c003b86:	c15c                	sw	a5,4(a0)
	}

	return rval;
}
1c003b88:	853a                	mv	a0,a4
1c003b8a:	8082                	ret

1c003b8c <_prf>:
	*sptr = p;
	return i;
}

int _prf(int (*func)(), void *dest, const char *format, va_list vargs)
{
1c003b8c:	7135                	addi	sp,sp,-160
1c003b8e:	c94a                	sw	s2,144(sp)
1c003b90:	c74e                	sw	s3,140(sp)
1c003b92:	c15a                	sw	s6,128(sp)
1c003b94:	dede                	sw	s7,124(sp)
1c003b96:	cf06                	sw	ra,156(sp)
1c003b98:	cd22                	sw	s0,152(sp)
1c003b9a:	cb26                	sw	s1,148(sp)
1c003b9c:	c552                	sw	s4,136(sp)
1c003b9e:	c356                	sw	s5,132(sp)
1c003ba0:	dce2                	sw	s8,120(sp)
1c003ba2:	dae6                	sw	s9,116(sp)
1c003ba4:	d8ea                	sw	s10,112(sp)
1c003ba6:	d6ee                	sw	s11,108(sp)
1c003ba8:	8b2a                	mv	s6,a0
1c003baa:	8bae                	mv	s7,a1
1c003bac:	8936                	mv	s2,a3
	struct zero_padding zero;
	VALTYPE val;

#define PUTC(c)	do { if ((*func)(c, dest) == EOF) return EOF; } while (false)

	count = 0;
1c003bae:	4981                	li	s3,0

	while ((c = *format++)) {
1c003bb0:	00064503          	lbu	a0,0(a2)
1c003bb4:	00160c13          	addi	s8,a2,1
1c003bb8:	c911                	beqz	a0,1c003bcc <_prf+0x40>
		if (c != '%') {
1c003bba:	02500793          	li	a5,37
1c003bbe:	14f50563          	beq	a0,a5,1c003d08 <_prf+0x17c>
			PUTC(c);
1c003bc2:	85de                	mv	a1,s7
1c003bc4:	9b02                	jalr	s6
1c003bc6:	13f53fe3          	p.bneimm	a0,-1,1c004504 <_prf+0x978>
1c003bca:	59fd                	li	s3,-1
		}
	}
	return count;

#undef PUTC
}
1c003bcc:	40fa                	lw	ra,156(sp)
1c003bce:	446a                	lw	s0,152(sp)
1c003bd0:	854e                	mv	a0,s3
1c003bd2:	44da                	lw	s1,148(sp)
1c003bd4:	494a                	lw	s2,144(sp)
1c003bd6:	49ba                	lw	s3,140(sp)
1c003bd8:	4a2a                	lw	s4,136(sp)
1c003bda:	4a9a                	lw	s5,132(sp)
1c003bdc:	4b0a                	lw	s6,128(sp)
1c003bde:	5bf6                	lw	s7,124(sp)
1c003be0:	5c66                	lw	s8,120(sp)
1c003be2:	5cd6                	lw	s9,116(sp)
1c003be4:	5d46                	lw	s10,112(sp)
1c003be6:	5db6                	lw	s11,108(sp)
1c003be8:	610d                	addi	sp,sp,160
1c003bea:	8082                	ret
				switch (c) {
1c003bec:	108d8663          	beq	s11,s0,1c003cf8 <_prf+0x16c>
1c003bf0:	0fb46863          	bltu	s0,s11,1c003ce0 <_prf+0x154>
1c003bf4:	fc0d8ce3          	beqz	s11,1c003bcc <_prf+0x40>
1c003bf8:	0ecd8d63          	beq	s11,a2,1c003cf2 <_prf+0x166>
					fplus = true;
1c003bfc:	8c52                	mv	s8,s4
			while (strchr("-+ #0", (c = *format++)) != NULL) {
1c003bfe:	000c4d83          	lbu	s11,0(s8)
1c003c02:	1c005737          	lui	a4,0x1c005
1c003c06:	ec070513          	addi	a0,a4,-320 # 1c004ec0 <__clz_tab+0x2b4>
1c003c0a:	85ee                	mv	a1,s11
1c003c0c:	c232                	sw	a2,4(sp)
1c003c0e:	b31ff0ef          	jal	ra,1c00373e <strchr>
1c003c12:	001c0a13          	addi	s4,s8,1
1c003c16:	4612                	lw	a2,4(sp)
1c003c18:	f971                	bnez	a0,1c003bec <_prf+0x60>
			if (c == '*') {
1c003c1a:	02a00713          	li	a4,42
1c003c1e:	10ed9563          	bne	s11,a4,1c003d28 <_prf+0x19c>
				width = va_arg(vargs, int);
1c003c22:	00092c83          	lw	s9,0(s2)
1c003c26:	00490713          	addi	a4,s2,4
				if (width < 0) {
1c003c2a:	000cd663          	bgez	s9,1c003c36 <_prf+0xaa>
					fminus = true;
1c003c2e:	4785                	li	a5,1
					width = -width;
1c003c30:	41900cb3          	neg	s9,s9
					fminus = true;
1c003c34:	cc3e                	sw	a5,24(sp)
				c = *format++;
1c003c36:	000a4d83          	lbu	s11,0(s4)
				width = va_arg(vargs, int);
1c003c3a:	893a                	mv	s2,a4
				c = *format++;
1c003c3c:	002c0a13          	addi	s4,s8,2
			if (c == '.') {
1c003c40:	02e00713          	li	a4,46
			precision = -1;
1c003c44:	547d                	li	s0,-1
			if (c == '.') {
1c003c46:	00ed9f63          	bne	s11,a4,1c003c64 <_prf+0xd8>
				if (c == '*') {
1c003c4a:	000a4703          	lbu	a4,0(s4)
1c003c4e:	02a00793          	li	a5,42
1c003c52:	10f71e63          	bne	a4,a5,1c003d6e <_prf+0x1e2>
					precision = va_arg(vargs, int);
1c003c56:	00092403          	lw	s0,0(s2)
				c = *format++;
1c003c5a:	0a05                	addi	s4,s4,1
					precision = va_arg(vargs, int);
1c003c5c:	0911                	addi	s2,s2,4
				c = *format++;
1c003c5e:	000a4d83          	lbu	s11,0(s4)
1c003c62:	0a05                	addi	s4,s4,1
			if (strchr("hlz", c) != NULL) {
1c003c64:	1c005737          	lui	a4,0x1c005
1c003c68:	85ee                	mv	a1,s11
1c003c6a:	ec870513          	addi	a0,a4,-312 # 1c004ec8 <__clz_tab+0x2bc>
1c003c6e:	84ee                	mv	s1,s11
1c003c70:	acfff0ef          	jal	ra,1c00373e <strchr>
1c003c74:	10050e63          	beqz	a0,1c003d90 <_prf+0x204>
				if (i == 'l' && c == 'l') {
1c003c78:	06c00693          	li	a3,108
				c = *format++;
1c003c7c:	001a0c13          	addi	s8,s4,1
1c003c80:	000a4d83          	lbu	s11,0(s4)
				if (i == 'l' && c == 'l') {
1c003c84:	0ed49963          	bne	s1,a3,1c003d76 <_prf+0x1ea>
1c003c88:	009d9863          	bne	s11,s1,1c003c98 <_prf+0x10c>
					c = *format++;
1c003c8c:	001a4d83          	lbu	s11,1(s4)
1c003c90:	002a0c13          	addi	s8,s4,2
					i = 'L';
1c003c94:	04c00493          	li	s1,76
			switch (c) {
1c003c98:	06700693          	li	a3,103
1c003c9c:	17b6e263          	bltu	a3,s11,1c003e00 <_prf+0x274>
1c003ca0:	06500693          	li	a3,101
1c003ca4:	32ddfc63          	bleu	a3,s11,1c003fdc <_prf+0x450>
1c003ca8:	04700693          	li	a3,71
1c003cac:	0fb6e563          	bltu	a3,s11,1c003d96 <_prf+0x20a>
1c003cb0:	04500713          	li	a4,69
1c003cb4:	32edf463          	bleu	a4,s11,1c003fdc <_prf+0x450>
1c003cb8:	f00d8ae3          	beqz	s11,1c003bcc <_prf+0x40>
1c003cbc:	02500713          	li	a4,37
1c003cc0:	02ed8de3          	beq	s11,a4,1c0044fa <_prf+0x96e>
				PUTC('%');
1c003cc4:	85de                	mv	a1,s7
1c003cc6:	02500513          	li	a0,37
1c003cca:	9b02                	jalr	s6
1c003ccc:	eff52fe3          	p.beqimm	a0,-1,1c003bca <_prf+0x3e>
				PUTC(c);
1c003cd0:	85de                	mv	a1,s7
1c003cd2:	856e                	mv	a0,s11
1c003cd4:	9b02                	jalr	s6
1c003cd6:	eff52ae3          	p.beqimm	a0,-1,1c003bca <_prf+0x3e>
				count += 2;
1c003cda:	0989                	addi	s3,s3,2
1c003cdc:	02b0006f          	j	1c004506 <_prf+0x97a>
				switch (c) {
1c003ce0:	039d8163          	beq	s11,s9,1c003d02 <_prf+0x176>
1c003ce4:	009d8c63          	beq	s11,s1,1c003cfc <_prf+0x170>
1c003ce8:	f1ad9ae3          	bne	s11,s10,1c003bfc <_prf+0x70>
					fplus = true;
1c003cec:	4705                	li	a4,1
1c003cee:	c63a                	sw	a4,12(sp)
					break;
1c003cf0:	b731                	j	1c003bfc <_prf+0x70>
					fspace = true;
1c003cf2:	4785                	li	a5,1
1c003cf4:	c83e                	sw	a5,16(sp)
					break;
1c003cf6:	b719                	j	1c003bfc <_prf+0x70>
					falt = true;
1c003cf8:	4a85                	li	s5,1
					break;
1c003cfa:	b709                	j	1c003bfc <_prf+0x70>
					fzero = true;
1c003cfc:	4705                	li	a4,1
1c003cfe:	ce3a                	sw	a4,28(sp)
					break;
1c003d00:	bdf5                	j	1c003bfc <_prf+0x70>
					fminus = true;
1c003d02:	4785                	li	a5,1
1c003d04:	cc3e                	sw	a5,24(sp)
1c003d06:	bddd                	j	1c003bfc <_prf+0x70>
			fminus = fplus = fspace = falt = fzero = false;
1c003d08:	ce02                	sw	zero,28(sp)
1c003d0a:	c802                	sw	zero,16(sp)
1c003d0c:	c602                	sw	zero,12(sp)
1c003d0e:	cc02                	sw	zero,24(sp)
1c003d10:	4a81                	li	s5,0
				switch (c) {
1c003d12:	02300413          	li	s0,35
1c003d16:	02d00c93          	li	s9,45
1c003d1a:	03000493          	li	s1,48
1c003d1e:	02b00d13          	li	s10,43
1c003d22:	02000613          	li	a2,32
1c003d26:	bde1                	j	1c003bfe <_prf+0x72>
	return ((((unsigned)c) >= ' ') && (((unsigned)c) <= '~'));
}

static inline int isdigit(int a)
{
	return (((unsigned)(a)-'0') < 10);
1c003d28:	fd0d8713          	addi	a4,s11,-48
			} else if (!isdigit(c)) {
1c003d2c:	46a5                	li	a3,9
				width = 0;
1c003d2e:	4c81                	li	s9,0
			} else if (!isdigit(c)) {
1c003d30:	f0e6e8e3          	bltu	a3,a4,1c003c40 <_prf+0xb4>
	while (isdigit(*p)) {
1c003d34:	4725                	li	a4,9
		i = 10 * i + *p++ - '0';
1c003d36:	4629                	li	a2,10
	while (isdigit(*p)) {
1c003d38:	8a62                	mv	s4,s8
1c003d3a:	001a4d8b          	p.lbu	s11,1(s4!)
1c003d3e:	fd0d8693          	addi	a3,s11,-48
1c003d42:	eed76fe3          	bltu	a4,a3,1c003c40 <_prf+0xb4>
		i = 10 * i + *p++ - '0';
1c003d46:	87ee                	mv	a5,s11
1c003d48:	42cc87b3          	p.mac	a5,s9,a2
1c003d4c:	8c52                	mv	s8,s4
1c003d4e:	fd078c93          	addi	s9,a5,-48
1c003d52:	b7dd                	j	1c003d38 <_prf+0x1ac>
1c003d54:	42b407b3          	p.mac	a5,s0,a1
1c003d58:	8a3a                	mv	s4,a4
1c003d5a:	fd078413          	addi	s0,a5,-48
	while (isdigit(*p)) {
1c003d5e:	8752                	mv	a4,s4
1c003d60:	0017478b          	p.lbu	a5,1(a4!)
1c003d64:	fd078613          	addi	a2,a5,-48
1c003d68:	fec6f6e3          	bleu	a2,a3,1c003d54 <_prf+0x1c8>
1c003d6c:	bdcd                	j	1c003c5e <_prf+0xd2>
	int i = 0;
1c003d6e:	4401                	li	s0,0
	while (isdigit(*p)) {
1c003d70:	46a5                	li	a3,9
		i = 10 * i + *p++ - '0';
1c003d72:	45a9                	li	a1,10
1c003d74:	b7ed                	j	1c003d5e <_prf+0x1d2>
				} else if (i == 'h' && c == 'h') {
1c003d76:	06800693          	li	a3,104
1c003d7a:	f0d49fe3          	bne	s1,a3,1c003c98 <_prf+0x10c>
1c003d7e:	f09d9de3          	bne	s11,s1,1c003c98 <_prf+0x10c>
					c = *format++;
1c003d82:	002a0c13          	addi	s8,s4,2
1c003d86:	001a4d83          	lbu	s11,1(s4)
					i = 'H';
1c003d8a:	04800493          	li	s1,72
1c003d8e:	b729                	j	1c003c98 <_prf+0x10c>
1c003d90:	8c52                	mv	s8,s4
			i = 0;
1c003d92:	4481                	li	s1,0
1c003d94:	b711                	j	1c003c98 <_prf+0x10c>
			switch (c) {
1c003d96:	06300693          	li	a3,99
1c003d9a:	12dd8a63          	beq	s11,a3,1c003ece <_prf+0x342>
1c003d9e:	09b6e163          	bltu	a3,s11,1c003e20 <_prf+0x294>
1c003da2:	05800693          	li	a3,88
1c003da6:	f0dd9fe3          	bne	s11,a3,1c003cc4 <_prf+0x138>
				switch (i) {
1c003daa:	06c00693          	li	a3,108
1c003dae:	6cd48363          	beq	s1,a3,1c004474 <_prf+0x8e8>
1c003db2:	07a00693          	li	a3,122
1c003db6:	6ad48f63          	beq	s1,a3,1c004474 <_prf+0x8e8>
1c003dba:	04c00693          	li	a3,76
1c003dbe:	6ad49b63          	bne	s1,a3,1c004474 <_prf+0x8e8>
					val = va_arg(vargs, unsigned long long);
1c003dc2:	091d                	addi	s2,s2,7
1c003dc4:	c4093933          	p.bclr	s2,s2,2,0
1c003dc8:	00092583          	lw	a1,0(s2)
1c003dcc:	00492603          	lw	a2,4(s2)
1c003dd0:	00890a13          	addi	s4,s2,8
				if (c == 'o') {
1c003dd4:	06f00713          	li	a4,111
1c003dd8:	00c4                	addi	s1,sp,68
1c003dda:	6aed9d63          	bne	s11,a4,1c004494 <_prf+0x908>
	if (alt_form) {
1c003dde:	6a0a8163          	beqz	s5,1c004480 <_prf+0x8f4>
		*buf++ = '0';
1c003de2:	03000793          	li	a5,48
1c003de6:	04f10223          	sb	a5,68(sp)
		if (!value) {
1c003dea:	00c5e7b3          	or	a5,a1,a2
		*buf++ = '0';
1c003dee:	04510513          	addi	a0,sp,69
		if (!value) {
1c003df2:	68079863          	bnez	a5,1c004482 <_prf+0x8f6>
			*buf++ = 0;
1c003df6:	040102a3          	sb	zero,69(sp)
			prefix = 0;
1c003dfa:	4901                	li	s2,0
			return 1;
1c003dfc:	4d85                	li	s11,1
1c003dfe:	a069                	j	1c003e88 <_prf+0x2fc>
			switch (c) {
1c003e00:	07000693          	li	a3,112
1c003e04:	62dd8f63          	beq	s11,a3,1c004442 <_prf+0x8b6>
1c003e08:	09b6e663          	bltu	a3,s11,1c003e94 <_prf+0x308>
1c003e0c:	06e00693          	li	a3,110
1c003e10:	5edd8463          	beq	s11,a3,1c0043f8 <_prf+0x86c>
1c003e14:	f9b6ebe3          	bltu	a3,s11,1c003daa <_prf+0x21e>
1c003e18:	06900693          	li	a3,105
1c003e1c:	eadd94e3          	bne	s11,a3,1c003cc4 <_prf+0x138>
				switch (i) {
1c003e20:	06c00793          	li	a5,108
1c003e24:	18f48563          	beq	s1,a5,1c003fae <_prf+0x422>
1c003e28:	07a00793          	li	a5,122
1c003e2c:	18f48163          	beq	s1,a5,1c003fae <_prf+0x422>
1c003e30:	04c00793          	li	a5,76
1c003e34:	16f49d63          	bne	s1,a5,1c003fae <_prf+0x422>
					val = va_arg(vargs, long long);
1c003e38:	091d                	addi	s2,s2,7
1c003e3a:	c4093933          	p.bclr	s2,s2,2,0
1c003e3e:	00092583          	lw	a1,0(s2)
1c003e42:	00492a83          	lw	s5,4(s2)
1c003e46:	00890a13          	addi	s4,s2,8
1c003e4a:	04410d93          	addi	s11,sp,68
	if (value < 0) {
1c003e4e:	160ad763          	bgez	s5,1c003fbc <_prf+0x430>
		*buf++ = '-';
1c003e52:	02d00793          	li	a5,45
		value = -value;
1c003e56:	40b005b3          	neg	a1,a1
		*buf++ = '-';
1c003e5a:	04f10223          	sb	a5,68(sp)
		value = -value;
1c003e5e:	41500633          	neg	a2,s5
1c003e62:	00b037b3          	snez	a5,a1
1c003e66:	8e1d                	sub	a2,a2,a5
		*buf++ = ' ';
1c003e68:	04510913          	addi	s2,sp,69
	return _to_x(buf, value, 10);
1c003e6c:	854a                	mv	a0,s2
1c003e6e:	46a9                	li	a3,10
1c003e70:	bf3ff0ef          	jal	ra,1c003a62 <_to_x>
				if (fplus || fspace || val < 0) {
1c003e74:	47b2                	lw	a5,12(sp)
	return (buf + _to_udec(buf, value)) - start;
1c003e76:	954a                	add	a0,a0,s2
1c003e78:	41b50db3          	sub	s11,a0,s11
					prefix = 1;
1c003e7c:	4905                	li	s2,1
				if (fplus || fspace || val < 0) {
1c003e7e:	e789                	bnez	a5,1c003e88 <_prf+0x2fc>
1c003e80:	4742                	lw	a4,16(sp)
1c003e82:	e319                	bnez	a4,1c003e88 <_prf+0x2fc>
1c003e84:	01fad913          	srli	s2,s5,0x1f
			if (precision >= 0) {
1c003e88:	04045c63          	bgez	s0,1c003ee0 <_prf+0x354>
			zero.predot = zero.postdot = zero.trail = 0;
1c003e8c:	4401                	li	s0,0
1c003e8e:	4a81                	li	s5,0
1c003e90:	4681                	li	a3,0
1c003e92:	a401                	j	1c004092 <_prf+0x506>
			switch (c) {
1c003e94:	07500693          	li	a3,117
1c003e98:	f0dd89e3          	beq	s11,a3,1c003daa <_prf+0x21e>
1c003e9c:	07800693          	li	a3,120
1c003ea0:	f0dd85e3          	beq	s11,a3,1c003daa <_prf+0x21e>
1c003ea4:	07300713          	li	a4,115
1c003ea8:	e0ed9ee3          	bne	s11,a4,1c003cc4 <_prf+0x138>
				cptr = va_arg(vargs, char *);
1c003eac:	00490a13          	addi	s4,s2,4
1c003eb0:	00092783          	lw	a5,0(s2)
				if (precision < 0) {
1c003eb4:	00045663          	bgez	s0,1c003ec0 <_prf+0x334>
					precision = INT_MAX;
1c003eb8:	80000737          	lui	a4,0x80000
1c003ebc:	fff74413          	not	s0,a4
1c003ec0:	86be                	mv	a3,a5
				for (clen = 0; clen < precision; clen++) {
1c003ec2:	4d81                	li	s11,0
1c003ec4:	5bb41263          	bne	s0,s11,1c004468 <_prf+0x8dc>
1c003ec8:	4901                	li	s2,0
1c003eca:	4401                	li	s0,0
1c003ecc:	a819                	j	1c003ee2 <_prf+0x356>
				buf[0] = va_arg(vargs, int);
1c003ece:	00092783          	lw	a5,0(s2)
1c003ed2:	00490a13          	addi	s4,s2,4
				clen = 1;
1c003ed6:	4d85                	li	s11,1
				buf[0] = va_arg(vargs, int);
1c003ed8:	04f10223          	sb	a5,68(sp)
				break;
1c003edc:	4901                	li	s2,0
1c003ede:	4401                	li	s0,0
1c003ee0:	00dc                	addi	a5,sp,68
				zero_head = precision - clen + prefix;
1c003ee2:	41b40d33          	sub	s10,s0,s11
1c003ee6:	9d4a                	add	s10,s10,s2
			zero.predot = zero.postdot = zero.trail = 0;
1c003ee8:	4401                	li	s0,0
1c003eea:	4a81                	li	s5,0
1c003eec:	4681                	li	a3,0
1c003eee:	040d6d33          	p.max	s10,s10,zero
			if (!fminus && width > 0) {
1c003ef2:	4762                	lw	a4,24(sp)
			width -= clen + zero_head;
1c003ef4:	01bd0633          	add	a2,s10,s11
1c003ef8:	40cc8cb3          	sub	s9,s9,a2
			if (!fminus && width > 0) {
1c003efc:	e701                	bnez	a4,1c003f04 <_prf+0x378>
1c003efe:	84e6                	mv	s1,s9
1c003f00:	63904263          	bgtz	s9,1c004524 <_prf+0x998>
1c003f04:	012784b3          	add	s1,a5,s2
			while (prefix-- > 0) {
1c003f08:	62979463          	bne	a5,s1,1c004530 <_prf+0x9a4>
1c003f0c:	84ea                	mv	s1,s10
			while (zero_head-- > 0) {
1c003f0e:	14fd                	addi	s1,s1,-1
1c003f10:	63f4bc63          	p.bneimm	s1,-1,1c004548 <_prf+0x9bc>
			clen -= prefix;
1c003f14:	412d84b3          	sub	s1,s11,s2
1c003f18:	8726                	mv	a4,s1
			if (zero.predot) {
1c003f1a:	c295                	beqz	a3,1c003f3e <_prf+0x3b2>
				c = *cptr;
1c003f1c:	0007c503          	lbu	a0,0(a5)
				while (isdigit(c)) {
1c003f20:	8dbe                	mv	s11,a5
1c003f22:	00978833          	add	a6,a5,s1
1c003f26:	4625                	li	a2,9
1c003f28:	fd050593          	addi	a1,a0,-48
1c003f2c:	41b80733          	sub	a4,a6,s11
1c003f30:	62b67863          	bleu	a1,a2,1c004560 <_prf+0x9d4>
1c003f34:	8636                	mv	a2,a3
				while (zero.predot-- > 0) {
1c003f36:	64061363          	bnez	a2,1c00457c <_prf+0x9f0>
				clen -= zero.predot;
1c003f3a:	8f15                	sub	a4,a4,a3
1c003f3c:	87ee                	mv	a5,s11
			if (zero.postdot) {
1c003f3e:	020a8e63          	beqz	s5,1c003f7a <_prf+0x3ee>
1c003f42:	8dbe                	mv	s11,a5
1c003f44:	00e78833          	add	a6,a5,a4
				} while (c != '.');
1c003f48:	02e00613          	li	a2,46
					c = *cptr++;
1c003f4c:	001dc68b          	p.lbu	a3,1(s11!)
					PUTC(c);
1c003f50:	85de                	mv	a1,s7
1c003f52:	c232                	sw	a2,4(sp)
1c003f54:	8536                	mv	a0,a3
1c003f56:	c036                	sw	a3,0(sp)
1c003f58:	c442                	sw	a6,8(sp)
1c003f5a:	9b02                	jalr	s6
1c003f5c:	4612                	lw	a2,4(sp)
1c003f5e:	4682                	lw	a3,0(sp)
1c003f60:	4822                	lw	a6,8(sp)
1c003f62:	c7f524e3          	p.beqimm	a0,-1,1c003bca <_prf+0x3e>
1c003f66:	41b80733          	sub	a4,a6,s11
				} while (c != '.');
1c003f6a:	fec691e3          	bne	a3,a2,1c003f4c <_prf+0x3c0>
1c003f6e:	86d6                	mv	a3,s5
				while (zero.postdot-- > 0) {
1c003f70:	62d04563          	bgtz	a3,1c00459a <_prf+0xa0e>
				clen -= zero.postdot;
1c003f74:	41570733          	sub	a4,a4,s5
					c = *cptr++;
1c003f78:	87ee                	mv	a5,s11
			if (zero.trail) {
1c003f7a:	c415                	beqz	s0,1c003fa6 <_prf+0x41a>
				c = *cptr;
1c003f7c:	0007c503          	lbu	a0,0(a5)
				while (isdigit(c) || c == '.') {
1c003f80:	8dbe                	mv	s11,a5
1c003f82:	973e                	add	a4,a4,a5
1c003f84:	4625                	li	a2,9
1c003f86:	02e00693          	li	a3,46
1c003f8a:	fd050593          	addi	a1,a0,-48
1c003f8e:	41b70ab3          	sub	s5,a4,s11
1c003f92:	62b67163          	bleu	a1,a2,1c0045b4 <_prf+0xa28>
1c003f96:	60d50f63          	beq	a0,a3,1c0045b4 <_prf+0xa28>
1c003f9a:	8722                	mv	a4,s0
				while (zero.trail-- > 0) {
1c003f9c:	62e04a63          	bgtz	a4,1c0045d0 <_prf+0xa44>
				clen -= zero.trail;
1c003fa0:	408a8733          	sub	a4,s5,s0
1c003fa4:	87ee                	mv	a5,s11
1c003fa6:	843e                	mv	s0,a5
1c003fa8:	00e78ab3          	add	s5,a5,a4
1c003fac:	a599                	j	1c0045f2 <_prf+0xa66>
					val = va_arg(vargs, int);
1c003fae:	00092583          	lw	a1,0(s2)
1c003fb2:	00490a13          	addi	s4,s2,4
1c003fb6:	41f5da93          	srai	s5,a1,0x1f
					break;
1c003fba:	bd41                	j	1c003e4a <_prf+0x2be>
	} else if (fplus) {
1c003fbc:	47b2                	lw	a5,12(sp)
1c003fbe:	c799                	beqz	a5,1c003fcc <_prf+0x440>
		*buf++ = '+';
1c003fc0:	02b00793          	li	a5,43
		*buf++ = ' ';
1c003fc4:	04f10223          	sb	a5,68(sp)
1c003fc8:	8656                	mv	a2,s5
1c003fca:	bd79                	j	1c003e68 <_prf+0x2dc>
	} else if (fspace) {
1c003fcc:	4742                	lw	a4,16(sp)
1c003fce:	c701                	beqz	a4,1c003fd6 <_prf+0x44a>
		*buf++ = ' ';
1c003fd0:	02000793          	li	a5,32
1c003fd4:	bfc5                	j	1c003fc4 <_prf+0x438>
	} else if (fspace) {
1c003fd6:	8656                	mv	a2,s5
1c003fd8:	896e                	mv	s2,s11
1c003fda:	bd49                	j	1c003e6c <_prf+0x2e0>
				u.d = va_arg(vargs, double);
1c003fdc:	091d                	addi	s2,s2,7
1c003fde:	c4093933          	p.bclr	s2,s2,2,0
				double_val = u.i;
1c003fe2:	00092583          	lw	a1,0(s2)
1c003fe6:	00492683          	lw	a3,4(s2)
	fract = (double_temp << 11) & ~HIGHBIT64;
1c003fea:	800007b7          	lui	a5,0x80000
1c003fee:	0155d613          	srli	a2,a1,0x15
1c003ff2:	00b69713          	slli	a4,a3,0xb
1c003ff6:	8f51                	or	a4,a4,a2
1c003ff8:	fff7c793          	not	a5,a5
1c003ffc:	05ae                	slli	a1,a1,0xb
1c003ffe:	8f7d                	and	a4,a4,a5
				u.d = va_arg(vargs, double);
1c004000:	00890a13          	addi	s4,s2,8
	fract = (double_temp << 11) & ~HIGHBIT64;
1c004004:	d82e                	sw	a1,48(sp)
	exp = double_temp >> 52 & 0x7ff;
1c004006:	0146d913          	srli	s2,a3,0x14
	fract = (double_temp << 11) & ~HIGHBIT64;
1c00400a:	da3a                	sw	a4,52(sp)
	exp = double_temp >> 52 & 0x7ff;
1c00400c:	e8b93933          	p.bclr	s2,s2,20,11
	if (sign) {
1c004010:	0806d863          	bgez	a3,1c0040a0 <_prf+0x514>
		*buf++ = '-';
1c004014:	02d00693          	li	a3,45
		*buf++ = ' ';
1c004018:	04d10223          	sb	a3,68(sp)
1c00401c:	04510493          	addi	s1,sp,69
	if (exp == 0x7ff) {
1c004020:	7ff00693          	li	a3,2047
1c004024:	0cd91363          	bne	s2,a3,1c0040ea <_prf+0x55e>
		if (!fract) {
1c004028:	8f4d                	or	a4,a4,a1
1c00402a:	fbfd8793          	addi	a5,s11,-65
1c00402e:	00348513          	addi	a0,s1,3
1c004032:	eb49                	bnez	a4,1c0040c4 <_prf+0x538>
			if (isupper(c)) {
1c004034:	4765                	li	a4,25
1c004036:	06f76f63          	bltu	a4,a5,1c0040b4 <_prf+0x528>
				*buf++ = 'I';
1c00403a:	6795                	lui	a5,0x5
1c00403c:	e4978793          	addi	a5,a5,-439 # 4e49 <__rt_stack_size+0x4649>
1c004040:	00f49023          	sh	a5,0(s1)
				*buf++ = 'N';
1c004044:	04600793          	li	a5,70
		return buf - start;
1c004048:	04410913          	addi	s2,sp,68
				*buf++ = 'a';
1c00404c:	00f48123          	sb	a5,2(s1)
		*buf = 0;
1c004050:	000481a3          	sb	zero,3(s1)
		return buf - start;
1c004054:	41250533          	sub	a0,a0,s2
			zero.predot = zero.postdot = zero.trail = 0;
1c004058:	4401                	li	s0,0
1c00405a:	4a81                	li	s5,0
1c00405c:	4681                	li	a3,0
				if (fplus || fspace || (buf[0] == '-')) {
1c00405e:	4732                	lw	a4,12(sp)
					prefix = 1;
1c004060:	4905                	li	s2,1
				if (fplus || fspace || (buf[0] == '-')) {
1c004062:	eb09                	bnez	a4,1c004074 <_prf+0x4e8>
1c004064:	47c2                	lw	a5,16(sp)
1c004066:	e799                	bnez	a5,1c004074 <_prf+0x4e8>
1c004068:	04414903          	lbu	s2,68(sp)
1c00406c:	fd390913          	addi	s2,s2,-45
1c004070:	00193913          	seqz	s2,s2
				if (!isdigit(buf[prefix])) {
1c004074:	1098                	addi	a4,sp,96
1c004076:	012707b3          	add	a5,a4,s2
1c00407a:	fe47c783          	lbu	a5,-28(a5)
				clen += zero.predot + zero.postdot + zero.trail;
1c00407e:	015684b3          	add	s1,a3,s5
1c004082:	94a2                	add	s1,s1,s0
1c004084:	fd078793          	addi	a5,a5,-48
				if (!isdigit(buf[prefix])) {
1c004088:	4625                	li	a2,9
				clen += zero.predot + zero.postdot + zero.trail;
1c00408a:	00a48db3          	add	s11,s1,a0
				if (!isdigit(buf[prefix])) {
1c00408e:	46f66e63          	bltu	a2,a5,1c00450a <_prf+0x97e>
			} else if (fzero) {
1c004092:	47f2                	lw	a5,28(sp)
1c004094:	46078b63          	beqz	a5,1c00450a <_prf+0x97e>
				zero_head = width - clen;
1c004098:	41bc8d33          	sub	s10,s9,s11
1c00409c:	00dc                	addi	a5,sp,68
1c00409e:	bd81                	j	1c003eee <_prf+0x362>
	} else if (fplus) {
1c0040a0:	47b2                	lw	a5,12(sp)
		*buf++ = '+';
1c0040a2:	02b00693          	li	a3,43
	} else if (fplus) {
1c0040a6:	fbad                	bnez	a5,1c004018 <_prf+0x48c>
	} else if (fspace) {
1c0040a8:	47c2                	lw	a5,16(sp)
1c0040aa:	00c4                	addi	s1,sp,68
1c0040ac:	dbb5                	beqz	a5,1c004020 <_prf+0x494>
		*buf++ = ' ';
1c0040ae:	02000693          	li	a3,32
1c0040b2:	b79d                	j	1c004018 <_prf+0x48c>
				*buf++ = 'i';
1c0040b4:	679d                	lui	a5,0x7
1c0040b6:	e6978793          	addi	a5,a5,-407 # 6e69 <__rt_stack_size+0x6669>
1c0040ba:	00f49023          	sh	a5,0(s1)
				*buf++ = 'n';
1c0040be:	06600793          	li	a5,102
1c0040c2:	b759                	j	1c004048 <_prf+0x4bc>
			if (isupper(c)) {
1c0040c4:	4765                	li	a4,25
1c0040c6:	00f76a63          	bltu	a4,a5,1c0040da <_prf+0x54e>
				*buf++ = 'N';
1c0040ca:	6791                	lui	a5,0x4
1c0040cc:	14e78793          	addi	a5,a5,334 # 414e <__rt_stack_size+0x394e>
1c0040d0:	00f49023          	sh	a5,0(s1)
				*buf++ = 'A';
1c0040d4:	04e00793          	li	a5,78
1c0040d8:	bf85                	j	1c004048 <_prf+0x4bc>
				*buf++ = 'n';
1c0040da:	6799                	lui	a5,0x6
1c0040dc:	16e78793          	addi	a5,a5,366 # 616e <__rt_stack_size+0x596e>
1c0040e0:	00f49023          	sh	a5,0(s1)
				*buf++ = 'a';
1c0040e4:	06e00793          	li	a5,110
1c0040e8:	b785                	j	1c004048 <_prf+0x4bc>
	if (c == 'F') {
1c0040ea:	04600693          	li	a3,70
1c0040ee:	00dd9463          	bne	s11,a3,1c0040f6 <_prf+0x56a>
		c = 'f';
1c0040f2:	06600d93          	li	s11,102
	if ((exp | fract) != 0) {
1c0040f6:	41f95613          	srai	a2,s2,0x1f
1c0040fa:	00b966b3          	or	a3,s2,a1
1c0040fe:	8e59                	or	a2,a2,a4
1c004100:	8ed1                	or	a3,a3,a2
1c004102:	1c068263          	beqz	a3,1c0042c6 <_prf+0x73a>
		if (exp == 0) {
1c004106:	10090d63          	beqz	s2,1c004220 <_prf+0x694>
		fract |= HIGHBIT64;
1c00410a:	5752                	lw	a4,52(sp)
1c00410c:	800007b7          	lui	a5,0x80000
		exp -= (1023 - 1);	/* +1 since .1 vs 1. */
1c004110:	c0290913          	addi	s2,s2,-1022
		fract |= HIGHBIT64;
1c004114:	8f5d                	or	a4,a4,a5
1c004116:	da3a                	sw	a4,52(sp)
1c004118:	4d01                	li	s10,0
	while (exp <= -3) {
1c00411a:	5779                	li	a4,-2
1c00411c:	10e94f63          	blt	s2,a4,1c00423a <_prf+0x6ae>
	while (exp > 0) {
1c004120:	17204663          	bgtz	s2,1c00428c <_prf+0x700>
		_rlrshift(&fract);
1c004124:	1808                	addi	a0,sp,48
		exp++;
1c004126:	0905                	addi	s2,s2,1
		_rlrshift(&fract);
1c004128:	9cdff0ef          	jal	ra,1c003af4 <_rlrshift>
	while (exp < (0 + 4)) {
1c00412c:	fe493ce3          	p.bneimm	s2,4,1c004124 <_prf+0x598>
	if (precision < 0) {
1c004130:	00045363          	bgez	s0,1c004136 <_prf+0x5aa>
		precision = 6;		/* Default precision if none given */
1c004134:	4419                	li	s0,6
	if ((c == 'g') || (c == 'G')) {
1c004136:	0dfdf713          	andi	a4,s11,223
1c00413a:	04700693          	li	a3,71
	prune_zero = false;		/* Assume trailing 0's allowed     */
1c00413e:	ca02                	sw	zero,20(sp)
	if ((c == 'g') || (c == 'G')) {
1c004140:	02d71563          	bne	a4,a3,1c00416a <_prf+0x5de>
		if (decexp < (-4 + 1) || decexp > precision) {
1c004144:	5775                	li	a4,-3
1c004146:	00ed4463          	blt	s10,a4,1c00414e <_prf+0x5c2>
1c00414a:	19a45163          	ble	s10,s0,1c0042cc <_prf+0x740>
			c += 'e' - 'g';
1c00414e:	ffed8793          	addi	a5,s11,-2
1c004152:	0ff7fd93          	andi	s11,a5,255
			if (precision > 0) {
1c004156:	4c040e63          	beqz	s0,1c004632 <_prf+0xaa6>
				precision--;
1c00415a:	147d                	addi	s0,s0,-1
		if (!falt && (precision > 0)) {
1c00415c:	4c0a9b63          	bnez	s5,1c004632 <_prf+0xaa6>
1c004160:	00802933          	sgtz	s2,s0
1c004164:	0ff97913          	andi	s2,s2,255
1c004168:	ca4a                	sw	s2,20(sp)
	if (c == 'f') {
1c00416a:	06600713          	li	a4,102
1c00416e:	4ced9363          	bne	s11,a4,1c004634 <_prf+0xaa8>
		exp = precision + decexp;
1c004172:	008d0733          	add	a4,s10,s0
		if (exp < 0) {
1c004176:	06600d93          	li	s11,102
1c00417a:	4a075f63          	bgez	a4,1c004638 <_prf+0xaac>
	digit_count = 16;
1c00417e:	4741                	li	a4,16
1c004180:	d63a                	sw	a4,44(sp)
			exp = 0;
1c004182:	4901                	li	s2,0
	ltemp = 0x0800000000000000;
1c004184:	4601                	li	a2,0
1c004186:	080006b7          	lui	a3,0x8000
1c00418a:	dc32                	sw	a2,56(sp)
1c00418c:	de36                	sw	a3,60(sp)
	while (exp--) {
1c00418e:	197d                	addi	s2,s2,-1
1c004190:	15f93563          	p.bneimm	s2,-1,1c0042da <_prf+0x74e>
	fract += ltemp;
1c004194:	5742                	lw	a4,48(sp)
1c004196:	56e2                	lw	a3,56(sp)
1c004198:	5652                	lw	a2,52(sp)
1c00419a:	55f2                	lw	a1,60(sp)
1c00419c:	96ba                	add	a3,a3,a4
1c00419e:	00e6b733          	sltu	a4,a3,a4
1c0041a2:	962e                	add	a2,a2,a1
1c0041a4:	9732                	add	a4,a4,a2
1c0041a6:	da3a                	sw	a4,52(sp)
1c0041a8:	d836                	sw	a3,48(sp)
	if ((fract >> 32) & 0xF0000000) {
1c0041aa:	f6073733          	p.bclr	a4,a4,27,0
1c0041ae:	cb01                	beqz	a4,1c0041be <_prf+0x632>
		_ldiv5(&fract);
1c0041b0:	1808                	addi	a0,sp,48
1c0041b2:	963ff0ef          	jal	ra,1c003b14 <_ldiv5>
		_rlrshift(&fract);
1c0041b6:	1808                	addi	a0,sp,48
1c0041b8:	93dff0ef          	jal	ra,1c003af4 <_rlrshift>
		decexp++;
1c0041bc:	0d05                	addi	s10,s10,1
	if (c == 'f') {
1c0041be:	06600713          	li	a4,102
1c0041c2:	16ed9163          	bne	s11,a4,1c004324 <_prf+0x798>
		if (decexp > 0) {
1c0041c6:	8926                	mv	s2,s1
1c0041c8:	13a04963          	bgtz	s10,1c0042fa <_prf+0x76e>
			*buf++ = '0';
1c0041cc:	03000713          	li	a4,48
1c0041d0:	00e48023          	sb	a4,0(s1)
1c0041d4:	00148913          	addi	s2,s1,1
			zero.predot = zero.postdot = zero.trail = 0;
1c0041d8:	4681                	li	a3,0
		if (falt || (precision > 0)) {
1c0041da:	120a8763          	beqz	s5,1c004308 <_prf+0x77c>
			*buf++ = '.';
1c0041de:	02e00593          	li	a1,46
1c0041e2:	00b90023          	sb	a1,0(s2)
1c0041e6:	00190713          	addi	a4,s2,1
		if (decexp < 0 && precision > 0) {
1c0041ea:	440d0263          	beqz	s10,1c00462e <_prf+0xaa2>
1c0041ee:	12805863          	blez	s0,1c00431e <_prf+0x792>
			zp->postdot = -decexp;
1c0041f2:	41a00ab3          	neg	s5,s10
1c0041f6:	048acab3          	p.min	s5,s5,s0
			precision -= zp->postdot;
1c0041fa:	41540433          	sub	s0,s0,s5
			zero.predot = zero.postdot = zero.trail = 0;
1c0041fe:	893a                	mv	s2,a4
		while (precision > 0 && digit_count > 0) {
1c004200:	10805763          	blez	s0,1c00430e <_prf+0x782>
1c004204:	5732                	lw	a4,44(sp)
1c004206:	10e05463          	blez	a4,1c00430e <_prf+0x782>
			*buf++ = _get_digit(&fract, &digit_count);
1c00420a:	106c                	addi	a1,sp,44
1c00420c:	1808                	addi	a0,sp,48
1c00420e:	c036                	sw	a3,0(sp)
1c004210:	949ff0ef          	jal	ra,1c003b58 <_get_digit>
1c004214:	00a900ab          	p.sb	a0,1(s2!)
			precision--;
1c004218:	147d                	addi	s0,s0,-1
1c00421a:	4682                	lw	a3,0(sp)
1c00421c:	b7d5                	j	1c004200 <_prf+0x674>
				exp--;
1c00421e:	197d                	addi	s2,s2,-1
			while (((fract <<= 1) & HIGHBIT64) == 0) {
1c004220:	01f5d693          	srli	a3,a1,0x1f
1c004224:	0706                	slli	a4,a4,0x1
1c004226:	8f55                	or	a4,a4,a3
1c004228:	0586                	slli	a1,a1,0x1
1c00422a:	fe075ae3          	bgez	a4,1c00421e <_prf+0x692>
1c00422e:	d82e                	sw	a1,48(sp)
1c004230:	da3a                	sw	a4,52(sp)
1c004232:	bde1                	j	1c00410a <_prf+0x57e>
			_rlrshift(&fract);
1c004234:	1808                	addi	a0,sp,48
1c004236:	8bfff0ef          	jal	ra,1c003af4 <_rlrshift>
		while ((fract >> 32) >= (MAXFP1 / 5)) {
1c00423a:	55d2                	lw	a1,52(sp)
1c00423c:	33333737          	lui	a4,0x33333
1c004240:	33270713          	addi	a4,a4,818 # 33333332 <__l2_end+0x1732438a>
1c004244:	5642                	lw	a2,48(sp)
1c004246:	0905                	addi	s2,s2,1
1c004248:	feb766e3          	bltu	a4,a1,1c004234 <_prf+0x6a8>
		fract *= 5U;
1c00424c:	4695                	li	a3,5
1c00424e:	02c6b733          	mulhu	a4,a3,a2
		decexp--;
1c004252:	1d7d                	addi	s10,s10,-1
		fract *= 5U;
1c004254:	02c68633          	mul	a2,a3,a2
1c004258:	42b68733          	p.mac	a4,a3,a1
1c00425c:	d832                	sw	a2,48(sp)
		decexp--;
1c00425e:	4681                	li	a3,0
		fract *= 5U;
1c004260:	da3a                	sw	a4,52(sp)
		while ((fract >> 32) <= (MAXFP1 / 2)) {
1c004262:	800007b7          	lui	a5,0x80000
1c004266:	fff7c793          	not	a5,a5
1c00426a:	00e7f763          	bleu	a4,a5,1c004278 <_prf+0x6ec>
1c00426e:	ea0686e3          	beqz	a3,1c00411a <_prf+0x58e>
1c004272:	d832                	sw	a2,48(sp)
1c004274:	da3a                	sw	a4,52(sp)
1c004276:	b555                	j	1c00411a <_prf+0x58e>
			fract <<= 1;
1c004278:	01f65593          	srli	a1,a2,0x1f
1c00427c:	00171693          	slli	a3,a4,0x1
1c004280:	00d5e733          	or	a4,a1,a3
1c004284:	0606                	slli	a2,a2,0x1
			exp--;
1c004286:	197d                	addi	s2,s2,-1
1c004288:	4685                	li	a3,1
1c00428a:	bfe1                	j	1c004262 <_prf+0x6d6>
		_ldiv5(&fract);
1c00428c:	1808                	addi	a0,sp,48
1c00428e:	887ff0ef          	jal	ra,1c003b14 <_ldiv5>
1c004292:	5642                	lw	a2,48(sp)
1c004294:	5752                	lw	a4,52(sp)
		exp--;
1c004296:	197d                	addi	s2,s2,-1
		decexp++;
1c004298:	0d05                	addi	s10,s10,1
1c00429a:	4681                	li	a3,0
		while ((fract >> 32) <= (MAXFP1 / 2)) {
1c00429c:	800007b7          	lui	a5,0x80000
1c0042a0:	fff7c793          	not	a5,a5
1c0042a4:	00e7f763          	bleu	a4,a5,1c0042b2 <_prf+0x726>
1c0042a8:	e6068ce3          	beqz	a3,1c004120 <_prf+0x594>
1c0042ac:	d832                	sw	a2,48(sp)
1c0042ae:	da3a                	sw	a4,52(sp)
1c0042b0:	bd85                	j	1c004120 <_prf+0x594>
			fract <<= 1;
1c0042b2:	01f65593          	srli	a1,a2,0x1f
1c0042b6:	00171693          	slli	a3,a4,0x1
1c0042ba:	00d5e733          	or	a4,a1,a3
1c0042be:	0606                	slli	a2,a2,0x1
			exp--;
1c0042c0:	197d                	addi	s2,s2,-1
1c0042c2:	4685                	li	a3,1
1c0042c4:	bfe1                	j	1c00429c <_prf+0x710>
	if ((exp | fract) != 0) {
1c0042c6:	4d01                	li	s10,0
1c0042c8:	4901                	li	s2,0
1c0042ca:	bda9                	j	1c004124 <_prf+0x598>
			precision -= decexp;
1c0042cc:	41a40433          	sub	s0,s0,s10
		if (!falt && (precision > 0)) {
1c0042d0:	ea0a91e3          	bnez	s5,1c004172 <_prf+0x5e6>
			c = 'f';
1c0042d4:	06600d93          	li	s11,102
1c0042d8:	b561                	j	1c004160 <_prf+0x5d4>
		_ldiv5(&ltemp);
1c0042da:	1828                	addi	a0,sp,56
1c0042dc:	839ff0ef          	jal	ra,1c003b14 <_ldiv5>
		_rlrshift(&ltemp);
1c0042e0:	1828                	addi	a0,sp,56
1c0042e2:	813ff0ef          	jal	ra,1c003af4 <_rlrshift>
1c0042e6:	b565                	j	1c00418e <_prf+0x602>
				*buf++ = _get_digit(&fract, &digit_count);
1c0042e8:	106c                	addi	a1,sp,44
1c0042ea:	1808                	addi	a0,sp,48
1c0042ec:	86dff0ef          	jal	ra,1c003b58 <_get_digit>
1c0042f0:	00a900ab          	p.sb	a0,1(s2!)
				decexp--;
1c0042f4:	1d7d                	addi	s10,s10,-1
			while (decexp > 0 && digit_count > 0) {
1c0042f6:	000d0563          	beqz	s10,1c004300 <_prf+0x774>
1c0042fa:	5732                	lw	a4,44(sp)
1c0042fc:	fee046e3          	bgtz	a4,1c0042e8 <_prf+0x75c>
		if (falt || (precision > 0)) {
1c004300:	300a9f63          	bnez	s5,1c00461e <_prf+0xa92>
			zp->predot = decexp;
1c004304:	86ea                	mv	a3,s10
			decexp = 0;
1c004306:	4d01                	li	s10,0
			zero.predot = zero.postdot = zero.trail = 0;
1c004308:	4a81                	li	s5,0
		if (falt || (precision > 0)) {
1c00430a:	ec804ae3          	bgtz	s0,1c0041de <_prf+0x652>
	if (prune_zero) {
1c00430e:	4752                	lw	a4,20(sp)
1c004310:	eb31                	bnez	a4,1c004364 <_prf+0x7d8>
	return buf - start;
1c004312:	00c8                	addi	a0,sp,68
	*buf = 0;
1c004314:	00090023          	sb	zero,0(s2)
	return buf - start;
1c004318:	40a90533          	sub	a0,s2,a0
1c00431c:	b389                	j	1c00405e <_prf+0x4d2>
			*buf++ = '.';
1c00431e:	893a                	mv	s2,a4
			zero.predot = zero.postdot = zero.trail = 0;
1c004320:	4a81                	li	s5,0
1c004322:	b7f5                	j	1c00430e <_prf+0x782>
		*buf = _get_digit(&fract, &digit_count);
1c004324:	106c                	addi	a1,sp,44
1c004326:	1808                	addi	a0,sp,48
1c004328:	831ff0ef          	jal	ra,1c003b58 <_get_digit>
1c00432c:	00a48023          	sb	a0,0(s1)
		if (*buf++ != '0') {
1c004330:	03000713          	li	a4,48
1c004334:	00e50363          	beq	a0,a4,1c00433a <_prf+0x7ae>
			decexp--;
1c004338:	1d7d                	addi	s10,s10,-1
		if (falt || (precision > 0)) {
1c00433a:	000a9663          	bnez	s5,1c004346 <_prf+0x7ba>
		if (*buf++ != '0') {
1c00433e:	00148913          	addi	s2,s1,1
		if (falt || (precision > 0)) {
1c004342:	00805d63          	blez	s0,1c00435c <_prf+0x7d0>
			*buf++ = '.';
1c004346:	02e00713          	li	a4,46
1c00434a:	00248913          	addi	s2,s1,2
1c00434e:	00e480a3          	sb	a4,1(s1)
		while (precision > 0 && digit_count > 0) {
1c004352:	00805563          	blez	s0,1c00435c <_prf+0x7d0>
1c004356:	5732                	lw	a4,44(sp)
1c004358:	08e04663          	bgtz	a4,1c0043e4 <_prf+0x858>
	if (prune_zero) {
1c00435c:	47d2                	lw	a5,20(sp)
			zero.predot = zero.postdot = zero.trail = 0;
1c00435e:	4a81                	li	s5,0
1c004360:	4681                	li	a3,0
	if (prune_zero) {
1c004362:	cf99                	beqz	a5,1c004380 <_prf+0x7f4>
		while (*--buf == '0')
1c004364:	03000513          	li	a0,48
1c004368:	fff90713          	addi	a4,s2,-1
1c00436c:	00074583          	lbu	a1,0(a4)
1c004370:	08a58263          	beq	a1,a0,1c0043f4 <_prf+0x868>
		if (*buf != '.') {
1c004374:	02e00513          	li	a0,46
		zp->trail = 0;
1c004378:	4401                	li	s0,0
		if (*buf != '.') {
1c00437a:	00a59363          	bne	a1,a0,1c004380 <_prf+0x7f4>
		while (*--buf == '0')
1c00437e:	893a                	mv	s2,a4
	if ((c == 'e') || (c == 'E')) {
1c004380:	0dfdf713          	andi	a4,s11,223
1c004384:	04500593          	li	a1,69
1c004388:	f8b715e3          	bne	a4,a1,1c004312 <_prf+0x786>
		*buf++ = c;
1c00438c:	85ca                	mv	a1,s2
1c00438e:	01b5812b          	p.sb	s11,2(a1!)
			*buf++ = '+';
1c004392:	02b00793          	li	a5,43
		if (decexp < 0) {
1c004396:	000d5663          	bgez	s10,1c0043a2 <_prf+0x816>
			decexp = -decexp;
1c00439a:	41a00d33          	neg	s10,s10
			*buf++ = '-';
1c00439e:	02d00793          	li	a5,45
			*buf++ = '+';
1c0043a2:	00f900a3          	sb	a5,1(s2)
		if (decexp >= 100) {
1c0043a6:	06300793          	li	a5,99
1c0043aa:	01a7de63          	ble	s10,a5,1c0043c6 <_prf+0x83a>
			*buf++ = (decexp / 100) + '0';
1c0043ae:	06400713          	li	a4,100
1c0043b2:	02ed47b3          	div	a5,s10,a4
1c0043b6:	00390593          	addi	a1,s2,3
			decexp %= 100;
1c0043ba:	02ed6d33          	rem	s10,s10,a4
			*buf++ = (decexp / 100) + '0';
1c0043be:	03078793          	addi	a5,a5,48 # 80000030 <pulp__FC+0x80000031>
1c0043c2:	00f90123          	sb	a5,2(s2)
		*buf++ = (decexp / 10) + '0';
1c0043c6:	47a9                	li	a5,10
1c0043c8:	892e                	mv	s2,a1
1c0043ca:	02fd4733          	div	a4,s10,a5
		decexp %= 10;
1c0043ce:	02fd68b3          	rem	a7,s10,a5
		*buf++ = (decexp / 10) + '0';
1c0043d2:	03070713          	addi	a4,a4,48
1c0043d6:	00e9012b          	p.sb	a4,2(s2!)
		*buf++ = decexp + '0';
1c0043da:	03088893          	addi	a7,a7,48
1c0043de:	011580a3          	sb	a7,1(a1)
1c0043e2:	bf05                	j	1c004312 <_prf+0x786>
			*buf++ = _get_digit(&fract, &digit_count);
1c0043e4:	106c                	addi	a1,sp,44
1c0043e6:	1808                	addi	a0,sp,48
1c0043e8:	f70ff0ef          	jal	ra,1c003b58 <_get_digit>
1c0043ec:	00a900ab          	p.sb	a0,1(s2!)
			precision--;
1c0043f0:	147d                	addi	s0,s0,-1
1c0043f2:	b785                	j	1c004352 <_prf+0x7c6>
		while (*--buf == '0')
1c0043f4:	893a                	mv	s2,a4
1c0043f6:	bf8d                	j	1c004368 <_prf+0x7dc>
1c0043f8:	8a4a                	mv	s4,s2
				switch (i) {
1c0043fa:	04c00693          	li	a3,76
1c0043fe:	004a278b          	p.lw	a5,4(s4!)
1c004402:	02d48a63          	beq	s1,a3,1c004436 <_prf+0x8aa>
1c004406:	0096c963          	blt	a3,s1,1c004418 <_prf+0x88c>
1c00440a:	04800693          	li	a3,72
1c00440e:	02d48063          	beq	s1,a3,1c00442e <_prf+0x8a2>
					*va_arg(vargs, int *) = count;
1c004412:	0137a023          	sw	s3,0(a5)
					break;
1c004416:	a801                	j	1c004426 <_prf+0x89a>
				switch (i) {
1c004418:	06800693          	li	a3,104
1c00441c:	fed49be3          	bne	s1,a3,1c004412 <_prf+0x886>
					*va_arg(vargs, short *) = count;
1c004420:	874e                	mv	a4,s3
1c004422:	00e79023          	sh	a4,0(a5)
				continue;
1c004426:	8952                	mv	s2,s4
1c004428:	8662                	mv	a2,s8
1c00442a:	f86ff06f          	j	1c003bb0 <_prf+0x24>
					*va_arg(vargs, char *) = count;
1c00442e:	874e                	mv	a4,s3
1c004430:	00e78023          	sb	a4,0(a5)
					break;
1c004434:	bfcd                	j	1c004426 <_prf+0x89a>
					*va_arg(vargs, long long *) = count;
1c004436:	41f9d713          	srai	a4,s3,0x1f
1c00443a:	0137a023          	sw	s3,0(a5)
1c00443e:	c3d8                	sw	a4,4(a5)
					break;
1c004440:	b7dd                	j	1c004426 <_prf+0x89a>
				clen = _to_hex(buf, val, true, 'x');
1c004442:	00092583          	lw	a1,0(s2)
		*buf++ = '0';
1c004446:	77e1                	lui	a5,0xffff8
1c004448:	8307c793          	xori	a5,a5,-2000
	len = _to_x(buf, value, 16);
1c00444c:	46c1                	li	a3,16
1c00444e:	4601                	li	a2,0
1c004450:	04610513          	addi	a0,sp,70
		*buf++ = '0';
1c004454:	04f11223          	sh	a5,68(sp)
	len = _to_x(buf, value, 16);
1c004458:	e0aff0ef          	jal	ra,1c003a62 <_to_x>
				val = (uintptr_t) va_arg(vargs, void *);
1c00445c:	00490a13          	addi	s4,s2,4
	return len + (buf - buf0);
1c004460:	00250d93          	addi	s11,a0,2
				prefix = 2;
1c004464:	4909                	li	s2,2
				break;
1c004466:	b40d                	j	1c003e88 <_prf+0x2fc>
					if (cptr[clen] == '\0') {
1c004468:	0016c60b          	p.lbu	a2,1(a3!) # 8000001 <__L2+0x7f80001>
1c00446c:	a4060ee3          	beqz	a2,1c003ec8 <_prf+0x33c>
				for (clen = 0; clen < precision; clen++) {
1c004470:	0d85                	addi	s11,s11,1
1c004472:	bc89                	j	1c003ec4 <_prf+0x338>
					val = va_arg(vargs, unsigned int);
1c004474:	00490a13          	addi	s4,s2,4
1c004478:	00092583          	lw	a1,0(s2)
1c00447c:	4601                	li	a2,0
					break;
1c00447e:	ba99                	j	1c003dd4 <_prf+0x248>
	if (alt_form) {
1c004480:	8526                	mv	a0,s1
	return (buf - buf0) + _to_x(buf, value, 8);
1c004482:	46a1                	li	a3,8
1c004484:	409504b3          	sub	s1,a0,s1
1c004488:	ddaff0ef          	jal	ra,1c003a62 <_to_x>
1c00448c:	00a48db3          	add	s11,s1,a0
			prefix = 0;
1c004490:	4901                	li	s2,0
1c004492:	badd                	j	1c003e88 <_prf+0x2fc>
				} else if (c == 'u') {
1c004494:	07500713          	li	a4,117
1c004498:	00ed9863          	bne	s11,a4,1c0044a8 <_prf+0x91c>
	return _to_x(buf, value, 10);
1c00449c:	46a9                	li	a3,10
1c00449e:	8526                	mv	a0,s1
1c0044a0:	dc2ff0ef          	jal	ra,1c003a62 <_to_x>
1c0044a4:	8daa                	mv	s11,a0
1c0044a6:	b7ed                	j	1c004490 <_prf+0x904>
	if (alt_form) {
1c0044a8:	8d26                	mv	s10,s1
1c0044aa:	000a8963          	beqz	s5,1c0044bc <_prf+0x930>
		*buf++ = '0';
1c0044ae:	7761                	lui	a4,0xffff8
1c0044b0:	83074713          	xori	a4,a4,-2000
1c0044b4:	04e11223          	sh	a4,68(sp)
		*buf++ = 'x';
1c0044b8:	04610d13          	addi	s10,sp,70
	len = _to_x(buf, value, 16);
1c0044bc:	46c1                	li	a3,16
1c0044be:	856a                	mv	a0,s10
1c0044c0:	da2ff0ef          	jal	ra,1c003a62 <_to_x>
	if (prefix == 'X') {
1c0044c4:	05800713          	li	a4,88
1c0044c8:	02ed9263          	bne	s11,a4,1c0044ec <_prf+0x960>
1c0044cc:	87a6                	mv	a5,s1
		if (*buf >= 'a' && *buf <= 'z') {
1c0044ce:	45e5                	li	a1,25
1c0044d0:	0017c68b          	p.lbu	a3,1(a5!) # ffff8001 <pulp__FC+0xffff8002>
1c0044d4:	f9f68613          	addi	a2,a3,-97
1c0044d8:	0ff67613          	andi	a2,a2,255
1c0044dc:	00c5e563          	bltu	a1,a2,1c0044e6 <_prf+0x95a>
			*buf += 'A' - 'a';
1c0044e0:	1681                	addi	a3,a3,-32
1c0044e2:	fed78fa3          	sb	a3,-1(a5)
	} while (*buf++);
1c0044e6:	fff7c703          	lbu	a4,-1(a5)
1c0044ea:	f37d                	bnez	a4,1c0044d0 <_prf+0x944>
	return len + (buf - buf0);
1c0044ec:	409d0733          	sub	a4,s10,s1
1c0044f0:	00a70db3          	add	s11,a4,a0
			prefix = 0;
1c0044f4:	001a9913          	slli	s2,s5,0x1
1c0044f8:	ba41                	j	1c003e88 <_prf+0x2fc>
				PUTC('%');
1c0044fa:	85de                	mv	a1,s7
1c0044fc:	02500513          	li	a0,37
1c004500:	ec4ff06f          	j	1c003bc4 <_prf+0x38>
				count++;
1c004504:	0985                	addi	s3,s3,1
				continue;
1c004506:	8a4a                	mv	s4,s2
1c004508:	bf39                	j	1c004426 <_prf+0x89a>
1c00450a:	00dc                	addi	a5,sp,68
				zero_head = 0;
1c00450c:	4d01                	li	s10,0
1c00450e:	b2d5                	j	1c003ef2 <_prf+0x366>
					PUTC(' ');
1c004510:	85de                	mv	a1,s7
1c004512:	02000513          	li	a0,32
1c004516:	c036                	sw	a3,0(sp)
1c004518:	c43e                	sw	a5,8(sp)
1c00451a:	9b02                	jalr	s6
1c00451c:	4682                	lw	a3,0(sp)
1c00451e:	47a2                	lw	a5,8(sp)
1c004520:	ebf52563          	p.beqimm	a0,-1,1c003bca <_prf+0x3e>
				while (width-- > 0) {
1c004524:	14fd                	addi	s1,s1,-1
1c004526:	fff4b5e3          	p.bneimm	s1,-1,1c004510 <_prf+0x984>
				count += width;
1c00452a:	99e6                	add	s3,s3,s9
				while (width-- > 0) {
1c00452c:	5cfd                	li	s9,-1
1c00452e:	bad9                	j	1c003f04 <_prf+0x378>
				PUTC(*cptr++);
1c004530:	0017c50b          	p.lbu	a0,1(a5!)
1c004534:	85de                	mv	a1,s7
1c004536:	c036                	sw	a3,0(sp)
1c004538:	c43e                	sw	a5,8(sp)
1c00453a:	9b02                	jalr	s6
1c00453c:	4682                	lw	a3,0(sp)
1c00453e:	47a2                	lw	a5,8(sp)
1c004540:	9df534e3          	p.bneimm	a0,-1,1c003f08 <_prf+0x37c>
1c004544:	e86ff06f          	j	1c003bca <_prf+0x3e>
				PUTC('0');
1c004548:	85de                	mv	a1,s7
1c00454a:	03000513          	li	a0,48
1c00454e:	c036                	sw	a3,0(sp)
1c004550:	c43e                	sw	a5,8(sp)
1c004552:	9b02                	jalr	s6
1c004554:	4682                	lw	a3,0(sp)
1c004556:	47a2                	lw	a5,8(sp)
1c004558:	9bf53be3          	p.bneimm	a0,-1,1c003f0e <_prf+0x382>
1c00455c:	e6eff06f          	j	1c003bca <_prf+0x3e>
					PUTC(c);
1c004560:	85de                	mv	a1,s7
1c004562:	c232                	sw	a2,4(sp)
1c004564:	c036                	sw	a3,0(sp)
1c004566:	c442                	sw	a6,8(sp)
1c004568:	9b02                	jalr	s6
1c00456a:	4612                	lw	a2,4(sp)
1c00456c:	4682                	lw	a3,0(sp)
1c00456e:	4822                	lw	a6,8(sp)
1c004570:	e5f52d63          	p.beqimm	a0,-1,1c003bca <_prf+0x3e>
					c = *++cptr;
1c004574:	0d85                	addi	s11,s11,1
1c004576:	000dc503          	lbu	a0,0(s11)
1c00457a:	b27d                	j	1c003f28 <_prf+0x39c>
					PUTC('0');
1c00457c:	85de                	mv	a1,s7
1c00457e:	03000513          	li	a0,48
1c004582:	c232                	sw	a2,4(sp)
1c004584:	c036                	sw	a3,0(sp)
1c004586:	c43a                	sw	a4,8(sp)
1c004588:	9b02                	jalr	s6
1c00458a:	4612                	lw	a2,4(sp)
1c00458c:	4682                	lw	a3,0(sp)
1c00458e:	4722                	lw	a4,8(sp)
1c004590:	167d                	addi	a2,a2,-1
1c004592:	9bf532e3          	p.bneimm	a0,-1,1c003f36 <_prf+0x3aa>
1c004596:	e34ff06f          	j	1c003bca <_prf+0x3e>
					PUTC('0');
1c00459a:	85de                	mv	a1,s7
1c00459c:	03000513          	li	a0,48
1c0045a0:	c036                	sw	a3,0(sp)
1c0045a2:	c43a                	sw	a4,8(sp)
1c0045a4:	9b02                	jalr	s6
1c0045a6:	4682                	lw	a3,0(sp)
1c0045a8:	4722                	lw	a4,8(sp)
1c0045aa:	16fd                	addi	a3,a3,-1
1c0045ac:	9df532e3          	p.bneimm	a0,-1,1c003f70 <_prf+0x3e4>
1c0045b0:	e1aff06f          	j	1c003bca <_prf+0x3e>
					PUTC(c);
1c0045b4:	85de                	mv	a1,s7
1c0045b6:	c232                	sw	a2,4(sp)
1c0045b8:	c036                	sw	a3,0(sp)
1c0045ba:	c43a                	sw	a4,8(sp)
1c0045bc:	9b02                	jalr	s6
1c0045be:	4612                	lw	a2,4(sp)
1c0045c0:	4682                	lw	a3,0(sp)
1c0045c2:	4722                	lw	a4,8(sp)
1c0045c4:	e1f52363          	p.beqimm	a0,-1,1c003bca <_prf+0x3e>
					c = *++cptr;
1c0045c8:	0d85                	addi	s11,s11,1
1c0045ca:	000dc503          	lbu	a0,0(s11)
1c0045ce:	ba75                	j	1c003f8a <_prf+0x3fe>
					PUTC('0');
1c0045d0:	85de                	mv	a1,s7
1c0045d2:	03000513          	li	a0,48
1c0045d6:	c43a                	sw	a4,8(sp)
1c0045d8:	9b02                	jalr	s6
1c0045da:	4722                	lw	a4,8(sp)
1c0045dc:	177d                	addi	a4,a4,-1
1c0045de:	9bf53fe3          	p.bneimm	a0,-1,1c003f9c <_prf+0x410>
1c0045e2:	de8ff06f          	j	1c003bca <_prf+0x3e>
				PUTC(*cptr++);
1c0045e6:	0014450b          	p.lbu	a0,1(s0!)
1c0045ea:	85de                	mv	a1,s7
1c0045ec:	9b02                	jalr	s6
1c0045ee:	ddf52e63          	p.beqimm	a0,-1,1c003bca <_prf+0x3e>
1c0045f2:	408a87b3          	sub	a5,s5,s0
			while (clen-- > 0) {
1c0045f6:	fef048e3          	bgtz	a5,1c0045e6 <_prf+0xa5a>
			count += prefix;
1c0045fa:	994e                	add	s2,s2,s3
			count += zero_head;
1c0045fc:	012d09b3          	add	s3,s10,s2
			count += clen;
1c004600:	99a6                	add	s3,s3,s1
			if (width > 0) {
1c004602:	e39052e3          	blez	s9,1c004426 <_prf+0x89a>
				count += width;
1c004606:	99e6                	add	s3,s3,s9
				while (width-- > 0) {
1c004608:	1cfd                	addi	s9,s9,-1
1c00460a:	e1fcaee3          	p.beqimm	s9,-1,1c004426 <_prf+0x89a>
					PUTC(' ');
1c00460e:	85de                	mv	a1,s7
1c004610:	02000513          	li	a0,32
1c004614:	9b02                	jalr	s6
1c004616:	fff539e3          	p.bneimm	a0,-1,1c004608 <_prf+0xa7c>
1c00461a:	db0ff06f          	j	1c003bca <_prf+0x3e>
			*buf++ = '.';
1c00461e:	02e00693          	li	a3,46
1c004622:	00d90023          	sb	a3,0(s2)
1c004626:	00190713          	addi	a4,s2,1
			zp->predot = decexp;
1c00462a:	86ea                	mv	a3,s10
			decexp = 0;
1c00462c:	4d01                	li	s10,0
			zero.predot = zero.postdot = zero.trail = 0;
1c00462e:	4a81                	li	s5,0
1c004630:	b6f9                	j	1c0041fe <_prf+0x672>
	prune_zero = false;		/* Assume trailing 0's allowed     */
1c004632:	ca02                	sw	zero,20(sp)
		exp = precision + 1;
1c004634:	00140713          	addi	a4,s0,1
	digit_count = 16;
1c004638:	46c1                	li	a3,16
1c00463a:	d636                	sw	a3,44(sp)
1c00463c:	04d74933          	p.min	s2,a4,a3
1c004640:	b691                	j	1c004184 <_prf+0x5f8>

1c004642 <__rt_uart_cluster_req_done>:
  }

  return __rt_uart_open(channel, conf, event, dev_name);
  
error:
  rt_warning("[UART] Failed to open uart device\n");
1c004642:	300476f3          	csrrci	a3,mstatus,8
1c004646:	4785                	li	a5,1
1c004648:	08f50623          	sb	a5,140(a0)
1c00464c:	08d54783          	lbu	a5,141(a0)
1c004650:	00201737          	lui	a4,0x201
1c004654:	e0470713          	addi	a4,a4,-508 # 200e04 <__L2+0x180e04>
1c004658:	04078793          	addi	a5,a5,64
1c00465c:	07da                	slli	a5,a5,0x16
1c00465e:	0007e723          	p.sw	zero,a4(a5)
1c004662:	30069073          	csrw	mstatus,a3
1c004666:	8082                	ret

1c004668 <__rt_uart_setup.isra.5>:
1c004668:	1c00f737          	lui	a4,0x1c00f
1c00466c:	f5472703          	lw	a4,-172(a4) # 1c00ef54 <__rt_freq_domains>
1c004670:	00155793          	srli	a5,a0,0x1
1c004674:	97ba                	add	a5,a5,a4
1c004676:	02a7d7b3          	divu	a5,a5,a0
1c00467a:	1a102737          	lui	a4,0x1a102
1c00467e:	17fd                	addi	a5,a5,-1
1c004680:	07c2                	slli	a5,a5,0x10
1c004682:	3067e793          	ori	a5,a5,774
1c004686:	22f72223          	sw	a5,548(a4) # 1a102224 <__l1_end+0xa102204>
1c00468a:	8082                	ret

1c00468c <__rt_uart_setfreq_after>:
1c00468c:	1c0057b7          	lui	a5,0x1c005
1c004690:	29478793          	addi	a5,a5,660 # 1c005294 <__rt_uart>
1c004694:	4398                	lw	a4,0(a5)
1c004696:	cb09                	beqz	a4,1c0046a8 <__rt_uart_setfreq_after+0x1c>
1c004698:	4788                	lw	a0,8(a5)
1c00469a:	1141                	addi	sp,sp,-16
1c00469c:	c606                	sw	ra,12(sp)
1c00469e:	37e9                	jal	1c004668 <__rt_uart_setup.isra.5>
1c0046a0:	40b2                	lw	ra,12(sp)
1c0046a2:	4501                	li	a0,0
1c0046a4:	0141                	addi	sp,sp,16
1c0046a6:	8082                	ret
1c0046a8:	4501                	li	a0,0
1c0046aa:	8082                	ret

1c0046ac <__rt_uart_wait_tx_done.isra.6>:
1c0046ac:	1a102737          	lui	a4,0x1a102
1c0046b0:	1141                	addi	sp,sp,-16
1c0046b2:	21870713          	addi	a4,a4,536 # 1a102218 <__l1_end+0xa1021f8>
1c0046b6:	002046b7          	lui	a3,0x204
1c0046ba:	431c                	lw	a5,0(a4)
1c0046bc:	8bc1                	andi	a5,a5,16
1c0046be:	e38d                	bnez	a5,1c0046e0 <__rt_uart_wait_tx_done.isra.6+0x34>
1c0046c0:	1a102737          	lui	a4,0x1a102
1c0046c4:	22070713          	addi	a4,a4,544 # 1a102220 <__l1_end+0xa102200>
1c0046c8:	431c                	lw	a5,0(a4)
1c0046ca:	fc17b7b3          	p.bclr	a5,a5,30,1
1c0046ce:	ffed                	bnez	a5,1c0046c8 <__rt_uart_wait_tx_done.isra.6+0x1c>
1c0046d0:	c602                	sw	zero,12(sp)
1c0046d2:	7cf00713          	li	a4,1999
1c0046d6:	47b2                	lw	a5,12(sp)
1c0046d8:	00f75763          	ble	a5,a4,1c0046e6 <__rt_uart_wait_tx_done.isra.6+0x3a>
1c0046dc:	0141                	addi	sp,sp,16
1c0046de:	8082                	ret
1c0046e0:	0386e783          	p.elw	a5,56(a3) # 204038 <__L2+0x184038>
1c0046e4:	bfd9                	j	1c0046ba <__rt_uart_wait_tx_done.isra.6+0xe>
1c0046e6:	47b2                	lw	a5,12(sp)
1c0046e8:	0785                	addi	a5,a5,1
1c0046ea:	c63e                	sw	a5,12(sp)
1c0046ec:	b7ed                	j	1c0046d6 <__rt_uart_wait_tx_done.isra.6+0x2a>

1c0046ee <__rt_uart_setfreq_before>:
1c0046ee:	1c0057b7          	lui	a5,0x1c005
1c0046f2:	2947a783          	lw	a5,660(a5) # 1c005294 <__rt_uart>
1c0046f6:	cf99                	beqz	a5,1c004714 <__rt_uart_setfreq_before+0x26>
1c0046f8:	1141                	addi	sp,sp,-16
1c0046fa:	c606                	sw	ra,12(sp)
1c0046fc:	3f45                	jal	1c0046ac <__rt_uart_wait_tx_done.isra.6>
1c0046fe:	40b2                	lw	ra,12(sp)
1c004700:	005007b7          	lui	a5,0x500
1c004704:	1a102737          	lui	a4,0x1a102
1c004708:	0799                	addi	a5,a5,6
1c00470a:	22f72223          	sw	a5,548(a4) # 1a102224 <__l1_end+0xa102204>
1c00470e:	4501                	li	a0,0
1c004710:	0141                	addi	sp,sp,16
1c004712:	8082                	ret
1c004714:	4501                	li	a0,0
1c004716:	8082                	ret

1c004718 <__rt_uart_cluster_req>:
1c004718:	1141                	addi	sp,sp,-16
1c00471a:	c606                	sw	ra,12(sp)
1c00471c:	c422                	sw	s0,8(sp)
1c00471e:	30047473          	csrrci	s0,mstatus,8
1c004722:	1c0047b7          	lui	a5,0x1c004
1c004726:	64278793          	addi	a5,a5,1602 # 1c004642 <__rt_uart_cluster_req_done>
1c00472a:	c91c                	sw	a5,16(a0)
1c00472c:	4785                	li	a5,1
1c00472e:	d91c                	sw	a5,48(a0)
1c004730:	411c                	lw	a5,0(a0)
1c004732:	02052a23          	sw	zero,52(a0)
1c004736:	c948                	sw	a0,20(a0)
1c004738:	43cc                	lw	a1,4(a5)
1c00473a:	4514                	lw	a3,8(a0)
1c00473c:	4150                	lw	a2,4(a0)
1c00473e:	0586                	slli	a1,a1,0x1
1c004740:	00c50793          	addi	a5,a0,12
1c004744:	4701                	li	a4,0
1c004746:	0585                	addi	a1,a1,1
1c004748:	4501                	li	a0,0
1c00474a:	db3fd0ef          	jal	ra,1c0024fc <rt_periph_copy>
1c00474e:	30041073          	csrw	mstatus,s0
1c004752:	40b2                	lw	ra,12(sp)
1c004754:	4422                	lw	s0,8(sp)
1c004756:	0141                	addi	sp,sp,16
1c004758:	8082                	ret

1c00475a <soc_eu_fcEventMask_setEvent>:
1c00475a:	47fd                	li	a5,31
1c00475c:	4721                	li	a4,8
1c00475e:	00a7d463          	ble	a0,a5,1c004766 <soc_eu_fcEventMask_setEvent+0xc>
1c004762:	1501                	addi	a0,a0,-32
1c004764:	4711                	li	a4,4
1c004766:	1a1066b7          	lui	a3,0x1a106
1c00476a:	20e6f603          	p.lw	a2,a4(a3)
1c00476e:	4785                	li	a5,1
1c004770:	00a79533          	sll	a0,a5,a0
1c004774:	fff54513          	not	a0,a0
1c004778:	8d71                	and	a0,a0,a2
1c00477a:	00a6e723          	p.sw	a0,a4(a3)
1c00477e:	8082                	ret

1c004780 <rt_uart_conf_init>:
1c004780:	000997b7          	lui	a5,0x99
1c004784:	96878793          	addi	a5,a5,-1688 # 98968 <__L2+0x18968>
1c004788:	c11c                	sw	a5,0(a0)
1c00478a:	57fd                	li	a5,-1
1c00478c:	c15c                	sw	a5,4(a0)
1c00478e:	8082                	ret

1c004790 <__rt_uart_open>:
1c004790:	1141                	addi	sp,sp,-16
1c004792:	c606                	sw	ra,12(sp)
1c004794:	c422                	sw	s0,8(sp)
1c004796:	c226                	sw	s1,4(sp)
1c004798:	c04a                	sw	s2,0(sp)
1c00479a:	30047973          	csrrci	s2,mstatus,8
1c00479e:	cd8d                	beqz	a1,1c0047d8 <__rt_uart_open+0x48>
1c0047a0:	4198                	lw	a4,0(a1)
1c0047a2:	1c0056b7          	lui	a3,0x1c005
1c0047a6:	ffc50793          	addi	a5,a0,-4
1c0047aa:	29468413          	addi	s0,a3,660 # 1c005294 <__rt_uart>
1c0047ae:	0792                	slli	a5,a5,0x4
1c0047b0:	943e                	add	s0,s0,a5
1c0047b2:	4010                	lw	a2,0(s0)
1c0047b4:	29468693          	addi	a3,a3,660
1c0047b8:	c60d                	beqz	a2,1c0047e2 <__rt_uart_open+0x52>
1c0047ba:	c589                	beqz	a1,1c0047c4 <__rt_uart_open+0x34>
1c0047bc:	418c                	lw	a1,0(a1)
1c0047be:	4418                	lw	a4,8(s0)
1c0047c0:	04e59b63          	bne	a1,a4,1c004816 <__rt_uart_open+0x86>
1c0047c4:	0605                	addi	a2,a2,1
1c0047c6:	00c6e7a3          	p.sw	a2,a5(a3)
1c0047ca:	8522                	mv	a0,s0
1c0047cc:	40b2                	lw	ra,12(sp)
1c0047ce:	4422                	lw	s0,8(sp)
1c0047d0:	4492                	lw	s1,4(sp)
1c0047d2:	4902                	lw	s2,0(sp)
1c0047d4:	0141                	addi	sp,sp,16
1c0047d6:	8082                	ret
1c0047d8:	00099737          	lui	a4,0x99
1c0047dc:	96870713          	addi	a4,a4,-1688 # 98968 <__L2+0x18968>
1c0047e0:	b7c9                	j	1c0047a2 <__rt_uart_open+0x12>
1c0047e2:	c418                	sw	a4,8(s0)
1c0047e4:	4785                	li	a5,1
1c0047e6:	1a102737          	lui	a4,0x1a102
1c0047ea:	78070713          	addi	a4,a4,1920 # 1a102780 <__l1_end+0xa102760>
1c0047ee:	c01c                	sw	a5,0(s0)
1c0047f0:	c048                	sw	a0,4(s0)
1c0047f2:	4314                	lw	a3,0(a4)
1c0047f4:	00a797b3          	sll	a5,a5,a0
1c0047f8:	00151493          	slli	s1,a0,0x1
1c0047fc:	8fd5                	or	a5,a5,a3
1c0047fe:	c31c                	sw	a5,0(a4)
1c004800:	8526                	mv	a0,s1
1c004802:	3fa1                	jal	1c00475a <soc_eu_fcEventMask_setEvent>
1c004804:	00148513          	addi	a0,s1,1
1c004808:	3f89                	jal	1c00475a <soc_eu_fcEventMask_setEvent>
1c00480a:	4408                	lw	a0,8(s0)
1c00480c:	e5dff0ef          	jal	ra,1c004668 <__rt_uart_setup.isra.5>
1c004810:	30091073          	csrw	mstatus,s2
1c004814:	bf5d                	j	1c0047ca <__rt_uart_open+0x3a>
1c004816:	4401                	li	s0,0
1c004818:	bf4d                	j	1c0047ca <__rt_uart_open+0x3a>

1c00481a <rt_uart_close>:
}



void rt_uart_close(rt_uart_t *uart, rt_event_t *event)
{
1c00481a:	1141                	addi	sp,sp,-16
1c00481c:	c606                	sw	ra,12(sp)
1c00481e:	c422                	sw	s0,8(sp)
1c004820:	c226                	sw	s1,4(sp)
  return __builtin_pulp_read_then_spr_bit_clr(reg, val);
1c004822:	300474f3          	csrrci	s1,mstatus,8
  int irq = rt_irq_disable();

  rt_trace(RT_TRACE_DEV_CTRL, "[UART] Closing uart device (handle: %p)\n", uart);

  uart->open_count--;
1c004826:	411c                	lw	a5,0(a0)
1c004828:	17fd                	addi	a5,a5,-1
1c00482a:	c11c                	sw	a5,0(a0)

  if (uart->open_count == 0)
1c00482c:	e79d                	bnez	a5,1c00485a <rt_uart_close+0x40>
1c00482e:	842a                	mv	s0,a0
  {
      // First wait for pending transfers to finish before stoppping uart in case
      // some printf are still pending
      __rt_uart_wait_tx_done(uart);
1c004830:	e7dff0ef          	jal	ra,1c0046ac <__rt_uart_wait_tx_done.isra.6>

  pulp_write32(ARCHI_UDMA_ADDR + UDMA_UART_OFFSET(channel) + UDMA_CHANNEL_CUSTOM_OFFSET + UART_SETUP_OFFSET, val);
}

static inline void plp_uart_disable(int channel) {
  pulp_write32(ARCHI_UDMA_ADDR + UDMA_UART_OFFSET(channel) + UDMA_CHANNEL_CUSTOM_OFFSET + UART_SETUP_OFFSET, 0x00500006);
1c004834:	1a102737          	lui	a4,0x1a102
1c004838:	005007b7          	lui	a5,0x500
1c00483c:	22470693          	addi	a3,a4,548 # 1a102224 <__l1_end+0xa102204>
1c004840:	0799                	addi	a5,a5,6
1c004842:	c29c                	sw	a5,0(a3)
      // Set enable bits for uart channel back to 0 
      // This is needed to be able to propagate new configs when re-opening
      plp_uart_disable(uart->channel - ARCHI_UDMA_UART_ID(0));      

      // Then stop the uart
      plp_udma_cg_set(plp_udma_cg_get() & ~(1<<uart->channel));
1c004844:	4050                	lw	a2,4(s0)
  return pulp_read32(ARCHI_SOC_PERIPHERALS_ADDR + ARCHI_UDMA_OFFSET + UDMA_CONF_OFFSET + UDMA_CONF_CG_OFFSET);
1c004846:	78070713          	addi	a4,a4,1920
1c00484a:	4314                	lw	a3,0(a4)
1c00484c:	4785                	li	a5,1
1c00484e:	00c797b3          	sll	a5,a5,a2
1c004852:	fff7c793          	not	a5,a5
1c004856:	8ff5                	and	a5,a5,a3
  pulp_write32(ARCHI_SOC_PERIPHERALS_ADDR + ARCHI_UDMA_OFFSET + UDMA_CONF_OFFSET + UDMA_CONF_CG_OFFSET, value);
1c004858:	c31c                	sw	a5,0(a4)
  __builtin_pulp_spr_write(reg, val);
1c00485a:	30049073          	csrw	mstatus,s1
  }

  rt_irq_restore(irq);
}
1c00485e:	40b2                	lw	ra,12(sp)
1c004860:	4422                	lw	s0,8(sp)
1c004862:	4492                	lw	s1,4(sp)
1c004864:	0141                	addi	sp,sp,16
1c004866:	8082                	ret

1c004868 <rt_uart_cluster_write>:
  asm("csrr %0, 0x014" : "=r" (hart_id) : );
1c004868:	014027f3          	csrr	a5,uhartid
  return (hart_id >> 5) & 0x3f;
1c00486c:	8795                	srai	a5,a5,0x5
1c00486e:	f267b7b3          	p.bclr	a5,a5,25,6
void rt_uart_cluster_write(rt_uart_t *handle, void *buffer, size_t size, rt_uart_req_t *req)
{
  req->uart = handle;
  req->buffer = buffer;
  req->size = size;
  req->cid = rt_cluster_id();
1c004872:	08f686a3          	sb	a5,141(a3)
  event->arg[0] = (uintptr_t)callback;
1c004876:	1c0047b7          	lui	a5,0x1c004
1c00487a:	71878793          	addi	a5,a5,1816 # 1c004718 <__rt_uart_cluster_req>
1c00487e:	ca9c                	sw	a5,16(a3)
  event->implem.pending = 1;  
1c004880:	4785                	li	a5,1
  req->uart = handle;
1c004882:	c288                	sw	a0,0(a3)
  req->buffer = buffer;
1c004884:	c2cc                	sw	a1,4(a3)
  req->size = size;
1c004886:	c690                	sw	a2,8(a3)
  req->done = 0;
1c004888:	08068623          	sb	zero,140(a3)
  event->implem.keep = 0;
1c00488c:	0206aa23          	sw	zero,52(a3)
  event->arg[1] = (uintptr_t)arg;
1c004890:	cad4                	sw	a3,20(a3)
  event->implem.pending = 1;  
1c004892:	da9c                	sw	a5,48(a3)
  __rt_init_event(&req->event, __rt_cluster_sched_get(), __rt_uart_cluster_req, (void *)req);
  __rt_event_set_pending(&req->event);
  __rt_cluster_push_fc_event(&req->event);
1c004894:	00c68513          	addi	a0,a3,12
1c004898:	deefe06f          	j	1c002e86 <__rt_cluster_push_fc_event>

1c00489c <__rt_uart_init>:
{
  // In case the peripheral clock can dynamically change, we need to be notified
  // when this happens so that we flush pending transfers before updating the frequency
  int err = 0;

  err |= __rt_cbsys_add(RT_CBSYS_PERIPH_SETFREQ_BEFORE, __rt_uart_setfreq_before, NULL);
1c00489c:	1c0045b7          	lui	a1,0x1c004
{
1c0048a0:	1141                	addi	sp,sp,-16
  err |= __rt_cbsys_add(RT_CBSYS_PERIPH_SETFREQ_BEFORE, __rt_uart_setfreq_before, NULL);
1c0048a2:	4601                	li	a2,0
1c0048a4:	6ee58593          	addi	a1,a1,1774 # 1c0046ee <__rt_uart_setfreq_before>
1c0048a8:	4511                	li	a0,4
{
1c0048aa:	c606                	sw	ra,12(sp)
1c0048ac:	c422                	sw	s0,8(sp)
  err |= __rt_cbsys_add(RT_CBSYS_PERIPH_SETFREQ_BEFORE, __rt_uart_setfreq_before, NULL);
1c0048ae:	abefd0ef          	jal	ra,1c001b6c <__rt_cbsys_add>

  err |= __rt_cbsys_add(RT_CBSYS_PERIPH_SETFREQ_AFTER, __rt_uart_setfreq_after, NULL);
1c0048b2:	1c0045b7          	lui	a1,0x1c004
  err |= __rt_cbsys_add(RT_CBSYS_PERIPH_SETFREQ_BEFORE, __rt_uart_setfreq_before, NULL);
1c0048b6:	842a                	mv	s0,a0
  err |= __rt_cbsys_add(RT_CBSYS_PERIPH_SETFREQ_AFTER, __rt_uart_setfreq_after, NULL);
1c0048b8:	4601                	li	a2,0
1c0048ba:	68c58593          	addi	a1,a1,1676 # 1c00468c <__rt_uart_setfreq_after>
1c0048be:	4515                	li	a0,5
1c0048c0:	aacfd0ef          	jal	ra,1c001b6c <__rt_cbsys_add>


  for (int i=0; i<ARCHI_UDMA_NB_UART; i++)
  {
    __rt_uart[i].open_count = 0;
1c0048c4:	1c0057b7          	lui	a5,0x1c005
1c0048c8:	2807aa23          	sw	zero,660(a5) # 1c005294 <__rt_uart>
  err |= __rt_cbsys_add(RT_CBSYS_PERIPH_SETFREQ_AFTER, __rt_uart_setfreq_after, NULL);
1c0048cc:	8d41                	or	a0,a0,s0
  }

  if (err) rt_fatal("Unable to initialize uart driver\n");
1c0048ce:	c10d                	beqz	a0,1c0048f0 <__rt_uart_init+0x54>
  asm("csrr %0, 0x014" : "=r" (hart_id) : );
1c0048d0:	01402673          	csrr	a2,uhartid
1c0048d4:	1c005537          	lui	a0,0x1c005
  return (hart_id >> 5) & 0x3f;
1c0048d8:	40565593          	srai	a1,a2,0x5
1c0048dc:	f265b5b3          	p.bclr	a1,a1,25,6
1c0048e0:	f4563633          	p.bclr	a2,a2,26,5
1c0048e4:	ecc50513          	addi	a0,a0,-308 # 1c004ecc <__clz_tab+0x2c0>
1c0048e8:	950ff0ef          	jal	ra,1c003a38 <printf>
1c0048ec:	8b8ff0ef          	jal	ra,1c0039a4 <abort>
}
1c0048f0:	40b2                	lw	ra,12(sp)
1c0048f2:	4422                	lw	s0,8(sp)
1c0048f4:	0141                	addi	sp,sp,16
1c0048f6:	8082                	ret

1c0048f8 <__cluster_text_start>:
  .global __rt_pe_start
__rt_pe_start:

#endif

    csrr    a0, 0xF14
1c0048f8:	f1402573          	csrr	a0,mhartid
    andi    a1, a0, 0x1f
1c0048fc:	01f57593          	andi	a1,a0,31
    srli    a0, a0, 5
1c004900:	8115                	srli	a0,a0,0x5
    
    // Activate a few events
    li      t0, (1<<PULP_DISPATCH_EVENT) | (1<<PULP_HW_BAR_EVENT) | (1<<PULP_MUTEX_EVENT)
1c004902:	000702b7          	lui	t0,0x70
    li      t1, ARCHI_EU_DEMUX_ADDR
1c004906:	00204337          	lui	t1,0x204
    sw      t0, EU_CORE_MASK(t1)
1c00490a:	00532023          	sw	t0,0(t1) # 204000 <__L2+0x184000>

#ifndef ARCHI_NO_L1_TINY
    sw      x0, %tiny(__rt_dma_first_pending)(x0)
1c00490e:	00002a23          	sw	zero,20(zero) # 14 <__rt_bridge_eeprom_handle>

#ifdef ARCHI_HAS_CC
    li      t2, ARCHI_CC_CORE_ID
    bne     a1, t2, __rt_slave_start
#else
    bne     a1, x0, __rt_slave_start
1c004912:	10059063          	bnez	a1,1c004a12 <__rt_slave_start>
#endif

    li      t0, (1<<ARCHI_CL_EVT_DMA1)
1c004916:	20000293          	li	t0,512
    li      t1, ARCHI_EU_DEMUX_ADDR
1c00491a:	00204337          	lui	t1,0x204
    sw      t0, EU_CORE_MASK_IRQ_OR(t1)
1c00491e:	00532a23          	sw	t0,20(t1) # 204014 <__L2+0x184014>



    // Prepare few values that will be kept in saved registers to optimize the loop
    la      s0, __rt_cluster_pool
1c004922:	e3ffb417          	auipc	s0,0xe3ffb
1c004926:	6e240413          	addi	s0,s0,1762 # 4 <__rt_bridge_flash_handle>
    li      s3, ARCHI_EU_DEMUX_ADDR
1c00492a:	002049b7          	lui	s3,0x204
    li      s4, 1<<RT_CLUSTER_CALL_EVT
1c00492e:	4a09                	li	s4,2
    la      s5, __rt_master_event
1c004930:	00000a97          	auipc	s5,0x0
1c004934:	038a8a93          	addi	s5,s5,56 # 1c004968 <__rt_master_event>
    la      s7, __rt_fc_cluster_data
1c004938:	0000ab97          	auipc	s7,0xa
1c00493c:	62cb8b93          	addi	s7,s7,1580 # 1c00ef64 <__rt_fc_cluster_data>
    li      t2, RT_FC_CLUSTER_DATA_T_SIZEOF
1c004940:	02800393          	li	t2,40
    mul     t2, t2, a0
1c004944:	02a383b3          	mul	t2,t2,a0
    add     s7, s7, t2
1c004948:	9b9e                	add	s7,s7,t2
    addi    s7, s7, RT_FC_CLUSTER_DATA_T_EVENTS
1c00494a:	0b91                	addi	s7,s7,4
#if defined(ARCHI_HAS_FC)
#if defined(ITC_VERSION)
    li      s9, ARCHI_FC_ITC_ADDR + ITC_STATUS_SET_OFFSET
    li      s8, 1<<RT_FC_ENQUEUE_EVENT
#else
    li      s9, ARCHI_FC_GLOBAL_ADDR + ARCHI_FC_PERIPHERALS_OFFSET + ARCHI_FC_EU_OFFSET + EU_SW_EVENTS_AREA_BASE + EU_CORE_TRIGG_SW_EVENT + (RT_FC_ENQUEUE_EVENT << 2)
1c00494c:	1b201cb7          	lui	s9,0x1b201
1c004950:	e04c8c93          	addi	s9,s9,-508 # 1b200e04 <__fc_tcdm_end+0x1ffa34>
    li      s8, 1
1c004954:	4c05                	li	s8,1
    // In case there is no FC, the event must be sent to cluster 0 event unit
    li      s9, ARCHI_CLUSTER_PERIPHERALS_GLOBAL_ADDR(0) + ARCHI_EU_OFFSET + EU_SW_EVENTS_AREA_BASE + EU_CORE_TRIGG_SW_EVENT + (RT_FC_ENQUEUE_EVENT << 2)
    li      s8, 1    
#endif
#ifndef ARCHI_HAS_NO_DISPATCH
    la      s10, __rt_set_slave_stack
1c004956:	00000d17          	auipc	s10,0x0
1c00495a:	0fad0d13          	addi	s10,s10,250 # 1c004a50 <__rt_set_slave_stack>
    ori     s10, s10, 1
1c00495e:	001d6d13          	ori	s10,s10,1
#endif

    csrwi   0x300, 0x8
1c004962:	30045073          	csrwi	mstatus,8

    j       __rt_master_loop
1c004966:	a819                	j	1c00497c <__rt_master_loop>

1c004968 <__rt_master_event>:



__rt_master_event:
    beq     s6, x0, __rt_master_loop
1c004968:	000b0a63          	beqz	s6,1c00497c <__rt_master_loop>

1c00496c <__rt_push_event_to_fc_retry>:

__rt_push_event_to_fc_retry:
    // Now we have to push the termination event to FC side
    // First wait until the slot for posting events is free
    lw      t0, 0(s7)
1c00496c:	000ba283          	lw	t0,0(s7)
    bne     t0, x0, __rt_push_event_to_fc_wait
1c004970:	08029a63          	bnez	t0,1c004a04 <__rt_push_event_to_fc_wait>

    // Push it
    sw      s6, 0(s7)
1c004974:	016ba023          	sw	s6,0(s7)

    // And notify the FC side with a HW event in case it is sleeping
    sw      s8, 0(s9)
1c004978:	018ca023          	sw	s8,0(s9)

1c00497c <__rt_master_loop>:


__rt_master_loop:
    // Check if a task is ready in the pool
    lw      t3, 0(s0)
1c00497c:	00042e03          	lw	t3,0(s0)
    // Check if a call is ready, e.g. if nb_pe is not zero
    // otherwise go to sleep
    beq     t3, x0, __rt_master_sleep
1c004980:	060e0b63          	beqz	t3,1c0049f6 <__rt_master_sleep>

1c004984 <__rt_master_loop_update_next>:

__rt_master_loop_update_next:
    lw      t4, RT_CLUSTER_TASK_NEXT(t3)
1c004984:	020e2e83          	lw	t4,32(t3)
    sw      x0, RT_CLUSTER_TASK_PENDING(t3)
1c004988:	020e2223          	sw	zero,36(t3)
    sw      t4, 0(s0)
1c00498c:	01d42023          	sw	t4,0(s0)

    // Check again next pointer in case it was updated by the FC.
    // If so, do it it again as this will ensure that either we see the new
    // value or the FC sees our write
    lw      t5, RT_CLUSTER_TASK_NEXT(t3)
1c004990:	020e2f03          	lw	t5,32(t3)
    bne     t4, t5, __rt_master_loop_update_next
1c004994:	ffee98e3          	bne	t4,t5,1c004984 <__rt_master_loop_update_next>
    li      a4, 0
    ebreak
#endif

#ifdef __RT_USE_ASSERT
    csrwi   0x7D0, 0
1c004998:	7d005073          	csrwi	0x7d0,0
#endif

    // Reads entry point information
    lw      a0, RT_CLUSTER_TASK_ARG(t3)
1c00499c:	004e2503          	lw	a0,4(t3)
    lw      t0, RT_CLUSTER_TASK_ENTRY(t3)
1c0049a0:	000e2283          	lw	t0,0(t3)
    lw      sp, RT_CLUSTER_TASK_STACKS(t3)
1c0049a4:	008e2103          	lw	sp,8(t3)
    lw      t1, RT_CLUSTER_TASK_STACK_SIZE(t3)
1c0049a8:	00ce2303          	lw	t1,12(t3)
    lw      t2, RT_CLUSTER_TASK_SLAVE_STACK_SIZE(t3)
1c0049ac:	010e2383          	lw	t2,16(t3)
    lw      t5, RT_CLUSTER_TASK_CORE_MASK(t3)
1c0049b0:	028e2f03          	lw	t5,40(t3)
    lw      s6, RT_CLUSTER_TASK_COMPLETION_CALLBACK(t3)
1c0049b4:	018e2b03          	lw	s6,24(t3)
    lw      t6, RT_CLUSTER_TASK_NB_CORES(t3)
1c0049b8:	014e2f83          	lw	t6,20(t3)
    mv      ra, s5
1c0049bc:	80d6                	mv	ra,s5

    add     sp, sp, t1
1c0049be:	911a                	add	sp,sp,t1

#ifdef ARCHI_NO_L1_TINY
    la      t4, __rt_cluster_nb_active_pe
    sw      t6, 0(t4)
#else
    sw      t6, %tiny(__rt_cluster_nb_active_pe)(x0)
1c0049c0:	01f02c23          	sw	t6,24(zero) # 18 <__rt_first_free>
#endif

#ifdef __RT_USE_ASSERT
    // Update stack checking information
    beqz    t1, __rt_no_stack_check
1c0049c4:	00030a63          	beqz	t1,1c0049d8 <__rt_no_stack_check>
    sub     t4, sp, t1
1c0049c8:	40610eb3          	sub	t4,sp,t1
    csrw    0x7D1, t4
1c0049cc:	7d1e9073          	csrw	0x7d1,t4
    csrw    0x7D2, sp
1c0049d0:	7d211073          	csrw	0x7d2,sp
    csrwi   0x7D0, 1
1c0049d4:	7d00d073          	csrwi	0x7d0,1

1c0049d8 <__rt_no_stack_check>:
#endif

__rt_no_stack_check:
    // Whatever the number of cores, we need to setup the barrier as the master code is compiled to use it
    sw      t5, EU_DISPATCH_DEMUX_OFFSET + EU_DISPATCH_TEAM_CONFIG(s3)
1c0049d8:	09e9a223          	sw	t5,132(s3) # 204084 <__L2+0x184084>
#ifdef ARCHI_HAS_CC
    // When we have a cluster controller, don't configure the slave barrier
    // if we don't have have any slave
    beqz    t5, __rt_master_no_slave_barrier
#endif
    sw      t5, EU_BARRIER_DEMUX_OFFSET + EU_HW_BARR_TRIGGER_MASK(s3)
1c0049dc:	21e9a023          	sw	t5,512(s3)
    sw      t5, EU_BARRIER_DEMUX_OFFSET + EU_HW_BARR_TARGET_MASK(s3)
1c0049e0:	21e9a623          	sw	t5,524(s3)

1c0049e4 <__rt_master_no_slave_barrier>:
    sw      t6, EU_BARRIER_DEMUX_OFFSET + EU_HW_BARR_TARGET_MASK + EU_BARRIER_SIZE(s3)
#endif

    // Set stack on slaves
    // For that we push first the function for setting stack, then the stack size and the base
    p.beqimm t5, 0, __rt_master_loop_no_slave
1c0049e4:	000f2863          	p.beqimm	t5,0,1c0049f4 <__rt_master_loop_no_slave>
    sw      s10, EU_DISPATCH_DEMUX_OFFSET + EU_DISPATCH_FIFO_ACCESS(s3)
1c0049e8:	09a9a023          	sw	s10,128(s3)
    sw      t2, EU_DISPATCH_DEMUX_OFFSET + EU_DISPATCH_FIFO_ACCESS(s3)
1c0049ec:	0879a023          	sw	t2,128(s3)
    sw      sp, EU_DISPATCH_DEMUX_OFFSET + EU_DISPATCH_FIFO_ACCESS(s3)
1c0049f0:	0829a023          	sw	sp,128(s3)

1c0049f4 <__rt_master_loop_no_slave>:

__rt_master_loop_no_slave:

    // Call the entry point, this will directly come back to the master loop
    jr      t0
1c0049f4:	8282                	jr	t0

1c0049f6 <__rt_master_sleep>:
    lw      a1, %tiny(__rt_pe_trace)(x0)
    li      a2, 1
    ebreak
#endif

    sw      s4, EU_CORE_MASK_OR(s3)
1c0049f6:	0149a423          	sw	s4,8(s3)
    p.elw   x0, EU_CORE_EVENT_WAIT_CLEAR(s3)
1c0049fa:	03c9e003          	p.elw	zero,60(s3)
    sw      s4, EU_CORE_MASK_AND(s3)
1c0049fe:	0149a223          	sw	s4,4(s3)
    j       __rt_master_loop
1c004a02:	bfad                	j	1c00497c <__rt_master_loop>

1c004a04 <__rt_push_event_to_fc_wait>:




__rt_push_event_to_fc_wait:
    sw      s4, EU_CORE_MASK_OR(s3)
1c004a04:	0149a423          	sw	s4,8(s3)
    p.elw   x0, EU_CORE_EVENT_WAIT_CLEAR(s3)
1c004a08:	03c9e003          	p.elw	zero,60(s3)
    sw      s4, EU_CORE_MASK_AND(s3)
1c004a0c:	0149a223          	sw	s4,4(s3)
    j       __rt_push_event_to_fc_retry
1c004a10:	bfb1                	j	1c00496c <__rt_push_event_to_fc_retry>

1c004a12 <__rt_slave_start>:
__rt_slave_start:


#ifndef ARCHI_HAS_NO_DISPATCH

    li      s2, ARCHI_EU_DEMUX_ADDR
1c004a12:	00204937          	lui	s2,0x204
    csrr    s3, 0xF14
1c004a16:	f14029f3          	csrr	s3,mhartid
    and     s3, s3, 0x1f
1c004a1a:	01f9f993          	andi	s3,s3,31
    la      s4, __rt_fork_return
1c004a1e:	00000a17          	auipc	s4,0x0
1c004a22:	012a0a13          	addi	s4,s4,18 # 1c004a30 <__rt_fork_return>
    la      s5, __rt_wait_for_dispatch
1c004a26:	00000a97          	auipc	s5,0x0
1c004a2a:	00ea8a93          	addi	s5,s5,14 # 1c004a34 <__rt_wait_for_dispatch>
    j       __rt_wait_for_dispatch
1c004a2e:	a019                	j	1c004a34 <__rt_wait_for_dispatch>

1c004a30 <__rt_fork_return>:
    // When the cluster has a controller barrier 0 is used for normal team barrier
    // and barrier 1 is used for end of offload
    p.elw   t0, EU_BARRIER_DEMUX_OFFSET + EU_HW_BARR_TRIGGER_WAIT_CLEAR + EU_BARRIER_SIZE(s2)
#else
#ifndef ARCHI_HAS_NO_BARRIER
    p.elw   t0, EU_BARRIER_DEMUX_OFFSET + EU_HW_BARR_TRIGGER_WAIT_CLEAR(s2)
1c004a30:	21c96283          	p.elw	t0,540(s2) # 20421c <__L2+0x18421c>

1c004a34 <__rt_wait_for_dispatch>:
    li      a2, 1
    ebreak
#endif

    // Wait for PC + arg information from dispatcher
    p.elw   t0, EU_DISPATCH_DEMUX_OFFSET + EU_DISPATCH_FIFO_ACCESS(s2)
1c004a34:	08096283          	p.elw	t0,128(s2)
    p.elw   a0, EU_DISPATCH_DEMUX_OFFSET + EU_DISPATCH_FIFO_ACCESS(s2)
1c004a38:	08096503          	p.elw	a0,128(s2)
    ebreak
    mv      a0, t1
#endif

    // Check if this is an entry with a barrier at the end (fork entry)
    andi    t1, t0, 1
1c004a3c:	0012f313          	andi	t1,t0,1
    bne     t1, zero, __rt_other_entry
1c004a40:	00031563          	bnez	t1,1c004a4a <__rt_other_entry>

1c004a44 <__rt_fork_entry>:

__rt_fork_entry:

    // Jump to the handler and prepare r9 to jump back just before the main loop
    add     ra, s4, x0
1c004a44:	000a00b3          	add	ra,s4,zero
    jr      t0
1c004a48:	8282                	jr	t0

1c004a4a <__rt_other_entry>:

__rt_other_entry:

  // Jump to the handler and prepare r9 to jump back directly to the main loop
    add     ra, s5, x0
1c004a4a:	000a80b3          	add	ra,s5,zero
    jr      t0
1c004a4e:	8282                	jr	t0

1c004a50 <__rt_set_slave_stack>:

  .global __rt_set_slave_stack
__rt_set_slave_stack:

#ifdef __RT_USE_ASSERT
    csrwi   0x7D0, 0
1c004a50:	7d005073          	csrwi	0x7d0,0
#endif

    // Multiply the stack size by the core ID and add the stack base to get our stack
    p.elw   t0, EU_DISPATCH_DEMUX_OFFSET + EU_DISPATCH_FIFO_ACCESS(s2)
1c004a54:	08096283          	p.elw	t0,128(s2)
    // If the cluster has a cluster controller, the first slave has core ID 0
    // and thus we need to take the next stack
    addi     t5, s3, 1
    p.mul   t4, t5, a0
#else
    p.mul   t4, s3, a0
1c004a58:	02a98eb3          	mul	t4,s3,a0
#endif
    add     sp, t4, t0
1c004a5c:	005e8133          	add	sp,t4,t0

#ifdef __RT_USE_ASSERT
    beqz    a0, __rt_no_stack_check_end
1c004a60:	c909                	beqz	a0,1c004a72 <__rt_no_stack_check_end>
    sub     t4, sp, a0
1c004a62:	40a10eb3          	sub	t4,sp,a0
    csrw    0x7D1, t4
1c004a66:	7d1e9073          	csrw	0x7d1,t4
    csrw    0x7D2, sp
1c004a6a:	7d211073          	csrw	0x7d2,sp
    csrwi   0x7D0, 1
1c004a6e:	7d00d073          	csrwi	0x7d0,1

1c004a72 <__rt_no_stack_check_end>:
#endif
__rt_no_stack_check_end:
    ret
1c004a72:	8082                	ret

1c004a74 <__rt_dma_2d>:
#if defined(ARCHI_HAS_CLUSTER)
#ifndef ARCHI_NO_L1_TINY
    .global __rt_dma_2d
__rt_dma_2d:

    sw  x8, -4(sp)
1c004a74:	fe812e23          	sw	s0,-4(sp)
    sw  x9, -8(sp)
1c004a78:	fe912c23          	sw	s1,-8(sp)
    sw  a0, -12(sp)
1c004a7c:	fea12a23          	sw	a0,-12(sp)
    sw  a1, -16(sp)
1c004a80:	feb12823          	sw	a1,-16(sp)
    sw  a2, -20(sp)
1c004a84:	fec12623          	sw	a2,-20(sp)

    li  a2, ARCHI_MCHAN_DEMUX_ADDR
1c004a88:	00204637          	lui	a2,0x204
1c004a8c:	40060613          	addi	a2,a2,1024 # 204400 <__L2+0x184400>

    lw  x8, %tiny(__rt_dma_first_pending)(x0)
1c004a90:	01402403          	lw	s0,20(zero) # 14 <__rt_bridge_eeprom_handle>

    lw  a1, CL_DMA_CMD_T_ID(x8)
1c004a94:	400c                	lw	a1,0(s0)
    lw  a0, CL_DMA_CMD_T_SIZE(x8)
1c004a96:	4408                	lw	a0,8(s0)
    p.bsetr a1, x0, a1
1c004a98:	80b045b3          	p.bsetr	a1,zero,a1
    sw  a1, MCHAN_STATUS_OFFSET(a2)
1c004a9c:	c24c                	sw	a1,4(a2)
    lw  a1, CL_DMA_CMD_T_LENGTH(x8)
1c004a9e:	480c                	lw	a1,16(s0)

    beqz a0, __rt_dma_2d_done
1c004aa0:	c131                	beqz	a0,1c004ae4 <__rt_dma_2d_done>

1c004aa2 <__rt_dma_2d_redo>:

__rt_dma_2d_redo:
    lw  x9, CL_DMA_CMD_T_CMD(x8)
1c004aa2:	4044                	lw	s1,4(s0)
    
    bgt a0, a1, __rt_dma_2d_not_last
1c004aa4:	00a5c363          	blt	a1,a0,1c004aaa <__rt_dma_2d_not_last>
    mv  a1, a0
1c004aa8:	85aa                	mv	a1,a0

1c004aaa <__rt_dma_2d_not_last>:

__rt_dma_2d_not_last:
    lw  a0, MCHAN_CMD_OFFSET(a2)
1c004aaa:	4208                	lw	a0,0(a2)
    sw  a0, CL_DMA_CMD_T_ID(x8)
1c004aac:	c008                	sw	a0,0(s0)

    lw  a0, CL_DMA_CMD_T_SIZE(x8)
1c004aae:	4408                	lw	a0,8(s0)

    p.inserti x9, a1, MCHAN_CMD_CMD_LEN_WIDTH-1, MCHAN_CMD_CMD_LEN_BIT
1c004ab0:	de05a4b3          	p.insert	s1,a1,15,0

    sw  x9, MCHAN_CMD_OFFSET(a2)   // cmd
1c004ab4:	c204                	sw	s1,0(a2)

    sub a0, a0, a1
1c004ab6:	8d0d                	sub	a0,a0,a1
    sw  a0, CL_DMA_CMD_T_SIZE(x8)
1c004ab8:	c408                	sw	a0,8(s0)

    lw  a0, CL_DMA_CMD_T_LOC_ADDR(x8)
1c004aba:	4848                	lw	a0,20(s0)

    sw  a0, MCHAN_CMD_OFFSET(a2)   // local address
1c004abc:	c208                	sw	a0,0(a2)
    add a0, a0, a1
1c004abe:	952e                	add	a0,a0,a1
    sw  a0, CL_DMA_CMD_T_LOC_ADDR(x8)
1c004ac0:	c848                	sw	a0,20(s0)


    lw  a0, CL_DMA_CMD_T_EXT_ADDR(x8)
1c004ac2:	4c08                	lw	a0,24(s0)
    lw  a1, CL_DMA_CMD_T_STRIDE(x8)
1c004ac4:	444c                	lw	a1,12(s0)

    sw  a0, MCHAN_CMD_OFFSET(a2)   // external address
1c004ac6:	c208                	sw	a0,0(a2)
    add a0, a0, a1
1c004ac8:	952e                	add	a0,a0,a1
    sw  a0, CL_DMA_CMD_T_EXT_ADDR(x8)
1c004aca:	cc08                	sw	a0,24(s0)

1c004acc <__rt_dma_2d_exit>:

__rt_dma_2d_exit:
    lw  x8, -4(sp)
1c004acc:	ffc12403          	lw	s0,-4(sp)
    lw  x9, -8(sp)
1c004ad0:	ff812483          	lw	s1,-8(sp)
    lw  a0, -12(sp)
1c004ad4:	ff412503          	lw	a0,-12(sp)
    lw  a1, -16(sp)
1c004ad8:	ff012583          	lw	a1,-16(sp)
    lw  a2, -20(sp)
1c004adc:	fec12603          	lw	a2,-20(sp)

    mret
1c004ae0:	30200073          	mret

1c004ae4 <__rt_dma_2d_done>:

__rt_dma_2d_done:
    sw  x0, CL_DMA_CMD_T_EXT_ADDR(x8)
1c004ae4:	00042c23          	sw	zero,24(s0)

    lw  x9, CL_DMA_CMD_T_NEXT(x8)
1c004ae8:	4c44                	lw	s1,28(s0)
    sw  x9, %tiny(__rt_dma_first_pending)(x0)
1c004aea:	00902a23          	sw	s1,20(zero) # 14 <__rt_bridge_eeprom_handle>

    li  x8, ARCHI_EU_DEMUX_ADDR + EU_SW_EVENTS_DEMUX_OFFSET + (RT_DMA_EVENT<<2)
1c004aee:	00204437          	lui	s0,0x204
1c004af2:	11440413          	addi	s0,s0,276 # 204114 <__L2+0x184114>
    sw  x0, EU_CORE_TRIGG_SW_EVENT(x8)
1c004af6:	00042023          	sw	zero,0(s0)

    beqz x9, __rt_dma_2d_exit
1c004afa:	d8e9                	beqz	s1,1c004acc <__rt_dma_2d_exit>

    mv  x8, x9
1c004afc:	8426                	mv	s0,s1

    lw  a0, CL_DMA_CMD_T_SIZE(x8)
1c004afe:	4408                	lw	a0,8(s0)
    lw  a1, CL_DMA_CMD_T_LENGTH(x8)
1c004b00:	480c                	lw	a1,16(s0)

    j   __rt_dma_2d_redo
1c004b02:	b745                	j	1c004aa2 <__rt_dma_2d_redo>
